ARM GAS  /tmp/ccGMITrb.s 			page 1


   1              		.syntax unified
   2              		.cpu cortex-m4
   3              		.fpu softvfp
   4              		.eabi_attribute 20, 1
   5              		.eabi_attribute 21, 1
   6              		.eabi_attribute 23, 3
   7              		.eabi_attribute 24, 1
   8              		.eabi_attribute 25, 1
   9              		.eabi_attribute 26, 1
  10              		.eabi_attribute 30, 2
  11              		.eabi_attribute 34, 1
  12              		.eabi_attribute 18, 4
  13              		.thumb
  14              		.file	"hal.c"
  15              		.text
  16              	.Ltext0:
  17              		.cfi_sections	.debug_frame
  18              		.section	.text.halInit,"ax",%progbits
  19              		.align	2
  20              		.p2align 4,,15
  21              		.global	halInit
  22              		.thumb
  23              		.thumb_func
  24              		.type	halInit, %function
  25              	halInit:
  26              	.LFB118:
  27              		.file 1 "ChibiOS_2.6.5/os/hal/src/hal.c"
  28              		.loc 1 68 0
  29              		.cfi_startproc
  30              		@ args = 0, pretend = 0, frame = 0
  31              		@ frame_needed = 0, uses_anonymous_args = 0
  32 0000 08B5     		push	{r3, lr}
  33              		.cfi_def_cfa_offset 8
  34              		.cfi_offset 3, -8
  35              		.cfi_offset 14, -4
  36              		.loc 1 70 0
  37 0002 FFF7FEFF 		bl	hal_lld_init
  38              	.LVL0:
  39              		.loc 1 73 0
  40 0006 FFF7FEFF 		bl	tmInit
  41              	.LVL1:
  42              		.loc 1 76 0
  43 000a 0848     		ldr	r0, .L3
  44 000c FFF7FEFF 		bl	_pal_lld_init
  45              	.LVL2:
  46              		.loc 1 79 0
  47 0010 FFF7FEFF 		bl	adcInit
  48              	.LVL3:
  49              		.loc 1 100 0
  50 0014 FFF7FEFF 		bl	pwmInit
  51              	.LVL4:
  52              		.loc 1 103 0
  53 0018 FFF7FEFF 		bl	sdInit
  54              	.LVL5:
  55              		.loc 1 115 0
  56 001c FFF7FEFF 		bl	usbInit
  57              	.LVL6:
ARM GAS  /tmp/ccGMITrb.s 			page 2


  58              		.loc 1 121 0
  59 0020 FFF7FEFF 		bl	sduInit
  60              	.LVL7:
  61              		.loc 1 128 0
  62 0024 BDE80840 		pop	{r3, lr}
  63              		.cfi_restore 14
  64              		.cfi_restore 3
  65              		.cfi_def_cfa_offset 0
  66              		.loc 1 127 0
  67 0028 FFF7FEBF 		b	boardInit
  68              	.LVL8:
  69              	.L4:
  70              		.align	2
  71              	.L3:
  72 002c 00000000 		.word	pal_default_config
  73              		.cfi_endproc
  74              	.LFE118:
  75              		.size	halInit, .-halInit
  76              		.section	.text.halIsCounterWithin,"ax",%progbits
  77              		.align	2
  78              		.p2align 4,,15
  79              		.global	halIsCounterWithin
  80              		.thumb
  81              		.thumb_func
  82              		.type	halIsCounterWithin, %function
  83              	halIsCounterWithin:
  84              	.LFB119:
  85              		.loc 1 174 0
  86              		.cfi_startproc
  87              		@ args = 0, pretend = 0, frame = 0
  88              		@ frame_needed = 0, uses_anonymous_args = 0
  89              		@ link register save eliminated.
  90              	.LVL9:
  91              		.loc 1 175 0
  92 0000 084B     		ldr	r3, .L15
  93              		.loc 1 177 0
  94 0002 8142     		cmp	r1, r0
  95              		.loc 1 175 0
  96 0004 5B68     		ldr	r3, [r3, #4]
  97              	.LVL10:
  98              		.loc 1 177 0
  99 0006 06D9     		bls	.L6
 100              		.loc 1 177 0 is_stmt 0 discriminator 1
 101 0008 8342     		cmp	r3, r0
 102 000a 08D3     		bcc	.L14
 103              	.L12:
 104 000c 8B42     		cmp	r3, r1
 105 000e 2CBF     		ite	cs
 106 0010 0020     		movcs	r0, #0
 107              	.LVL11:
 108 0012 0120     		movcc	r0, #1
 109 0014 7047     		bx	lr
 110              	.LVL12:
 111              	.L6:
 112              		.loc 1 178 0 is_stmt 1
 113 0016 8342     		cmp	r3, r0
 114 0018 F8D3     		bcc	.L12
ARM GAS  /tmp/ccGMITrb.s 			page 3


 115 001a 0120     		movs	r0, #1
 116              	.LVL13:
 117              		.loc 1 179 0
 118 001c 7047     		bx	lr
 119              	.LVL14:
 120              	.L14:
 121 001e 0020     		movs	r0, #0
 122              	.LVL15:
 123 0020 7047     		bx	lr
 124              	.L16:
 125 0022 00BF     		.align	2
 126              	.L15:
 127 0024 001000E0 		.word	-536866816
 128              		.cfi_endproc
 129              	.LFE119:
 130              		.size	halIsCounterWithin, .-halIsCounterWithin
 131              		.section	.text.halPolledDelay,"ax",%progbits
 132              		.align	2
 133              		.p2align 4,,15
 134              		.global	halPolledDelay
 135              		.thumb
 136              		.thumb_func
 137              		.type	halPolledDelay, %function
 138              	halPolledDelay:
 139              	.LFB120:
 140              		.loc 1 193 0
 141              		.cfi_startproc
 142              		@ args = 0, pretend = 0, frame = 0
 143              		@ frame_needed = 0, uses_anonymous_args = 0
 144              		@ link register save eliminated.
 145              	.LVL16:
 146              		.loc 1 194 0
 147 0000 0849     		ldr	r1, .L28
 148 0002 4A68     		ldr	r2, [r1, #4]
 149              	.LVL17:
 150              		.loc 1 195 0
 151 0004 1044     		add	r0, r0, r2
 152              	.LVL18:
 153              	.L26:
 154              	.LBB4:
 155              	.LBB5:
 156              		.loc 1 177 0 discriminator 1
 157 0006 8242     		cmp	r2, r0
 158              		.loc 1 175 0 discriminator 1
 159 0008 4B68     		ldr	r3, [r1, #4]
 160              	.LVL19:
 161              		.loc 1 177 0 discriminator 1
 162 000a 02D2     		bcs	.L18
 163              		.loc 1 177 0 is_stmt 0
 164 000c 9A42     		cmp	r2, r3
 165 000e 02D9     		bls	.L27
 166 0010 7047     		bx	lr
 167              	.L18:
 168              		.loc 1 178 0 is_stmt 1
 169 0012 9A42     		cmp	r2, r3
 170 0014 F7D9     		bls	.L26
 171              	.L27:
ARM GAS  /tmp/ccGMITrb.s 			page 4


 172 0016 9842     		cmp	r0, r3
 173 0018 94BF     		ite	ls
 174 001a 0023     		movls	r3, #0
 175              	.LVL20:
 176 001c 0123     		movhi	r3, #1
 177              	.LBE5:
 178              	.LBE4:
 179              		.loc 1 196 0
 180 001e 002B     		cmp	r3, #0
 181 0020 F1D1     		bne	.L26
 182 0022 7047     		bx	lr
 183              	.L29:
 184              		.align	2
 185              	.L28:
 186 0024 001000E0 		.word	-536866816
 187              		.cfi_endproc
 188              	.LFE120:
 189              		.size	halPolledDelay, .-halPolledDelay
 190              		.text
 191              	.Letext0:
 192              		.file 2 "/usr/include/newlib/machine/_default_types.h"
 193              		.file 3 "/usr/include/newlib/sys/_stdint.h"
 194              		.file 4 "ChibiOS_2.6.5/os/ports/GCC/ARMCMx/chtypes.h"
 195              		.file 5 "ChibiOS_2.6.5/os/ports/common/ARMCMx/nvic.h"
 196              		.file 6 "ChibiOS_2.6.5/os/hal/platforms/STM32F4xx/hal_lld.h"
 197              		.file 7 "ChibiOS_2.6.5/os/hal/platforms/STM32/GPIOv2/pal_lld.h"
 198              		.file 8 "ChibiOS_2.6.5/os/ports/common/ARMCMx/CMSIS/include/core_cm4.h"
 199              		.file 9 "ChibiOS_2.6.5/os/hal/include/tm.h"
 200              		.file 10 "ChibiOS_2.6.5/os/hal/include/adc.h"
 201              		.file 11 "ChibiOS_2.6.5/os/hal/include/pwm.h"
 202              		.file 12 "ChibiOS_2.6.5/os/hal/include/serial.h"
 203              		.file 13 "ChibiOS_2.6.5/os/hal/include/usb.h"
 204              		.file 14 "ChibiOS_2.6.5/os/hal/include/serial_usb.h"
 205              		.file 15 "ChibiOS_2.6.5/boards/ST_STM32F4_DISCOVERY/board.h"