ARM GAS  /tmp/cc5R02t1.s 			page 1


   1              		.syntax unified
   2              		.cpu cortex-m4
   3              		.fpu softvfp
   4              		.eabi_attribute 20, 1
   5              		.eabi_attribute 21, 1
   6              		.eabi_attribute 23, 3
   7              		.eabi_attribute 24, 1
   8              		.eabi_attribute 25, 1
   9              		.eabi_attribute 26, 1
  10              		.eabi_attribute 30, 2
  11              		.eabi_attribute 34, 1
  12              		.eabi_attribute 18, 4
  13              		.thumb
  14              		.file	"main.c"
  15              		.text
  16              	.Ltext0:
  17              		.cfi_sections	.debug_frame
  18              		.section	.text.adcSampleThread,"ax",%progbits
  19              		.align	2
  20              		.p2align 4,,15
  21              		.thumb
  22              		.thumb_func
  23              		.type	adcSampleThread, %function
  24              	adcSampleThread:
  25              	.LFB131:
  26              		.file 1 "main.c"
  27              		.loc 1 561 0
  28              		.cfi_startproc
  29              		@ Volatile: function does not return.
  30              		@ args = 0, pretend = 0, frame = 0
  31              		@ frame_needed = 0, uses_anonymous_args = 0
  32              	.LVL0:
  33 0000 08B5     		push	{r3, lr}
  34              		.cfi_def_cfa_offset 8
  35              		.cfi_offset 3, -8
  36              		.cfi_offset 14, -4
  37              		.loc 1 563 0
  38 0002 054B     		ldr	r3, .L5
  39 0004 054A     		ldr	r2, .L5+4
  40 0006 9B69     		ldr	r3, [r3, #24]
  41 0008 9A61     		str	r2, [r3, #24]
  42              	.LVL1:
  43              	.L2:
  44              		.loc 1 565 0 discriminator 1
  45 000a 0549     		ldr	r1, .L5+8
  46 000c 054A     		ldr	r2, .L5+12
  47 000e 0648     		ldr	r0, .L5+16
  48 0010 0423     		movs	r3, #4
  49 0012 FFF7FEFF 		bl	adcConvert
  50              	.LVL2:
  51              		.loc 1 566 0 discriminator 1
  52 0016 F8E7     		b	.L2
  53              	.L6:
  54              		.align	2
  55              	.L5:
  56 0018 00000000 		.word	rlist
  57 001c 00000000 		.word	.LC0
ARM GAS  /tmp/cc5R02t1.s 			page 2


  58 0020 00000000 		.word	.LANCHOR0
  59 0024 00000000 		.word	.LANCHOR1
  60 0028 00000000 		.word	ADCD1
  61              		.cfi_endproc
  62              	.LFE131:
  63              		.size	adcSampleThread, .-adcSampleThread
  64              		.section	.text.usbThread,"ax",%progbits
  65              		.align	2
  66              		.p2align 4,,15
  67              		.thumb
  68              		.thumb_func
  69              		.type	usbThread, %function
  70              	usbThread:
  71              	.LFB122:
  72              		.loc 1 126 0
  73              		.cfi_startproc
  74              		@ args = 0, pretend = 0, frame = 0
  75              		@ frame_needed = 0, uses_anonymous_args = 0
  76              	.LVL3:
  77 0000 F8B5     		push	{r3, r4, r5, r6, r7, lr}
  78              		.cfi_def_cfa_offset 24
  79              		.cfi_offset 3, -24
  80              		.cfi_offset 4, -20
  81              		.cfi_offset 5, -16
  82              		.cfi_offset 6, -12
  83              		.cfi_offset 7, -8
  84              		.cfi_offset 14, -4
  85              		.loc 1 128 0
  86 0002 0C4B     		ldr	r3, .L12
  87 0004 0C4A     		ldr	r2, .L12+4
  88 0006 9B69     		ldr	r3, [r3, #24]
  89              	.LBB7:
  90              		.loc 1 142 0
  91 0008 0C4D     		ldr	r5, .L12+8
  92              	.LBE7:
  93              		.loc 1 128 0
  94 000a 9A61     		str	r2, [r3, #24]
  95              	.LBB8:
  96              		.loc 1 142 0
  97 000c 4FF40057 		mov	r7, #8192
  98              		.loc 1 144 0
  99 0010 4FF00056 		mov	r6, #536870912
 100              	.LVL4:
 101              	.L9:
 102              		.loc 1 131 0
 103 0014 FFF7FEFF 		bl	isUSBActive
 104              	.LVL5:
 105 0018 0028     		cmp	r0, #0
 106 001a 14BF     		ite	ne
 107 001c 7D24     		movne	r4, #125
 108 001e 4FF4FA74 		moveq	r4, #500
 109              	.LVL6:
 110              		.loc 1 143 0
 111 0022 2046     		mov	r0, r4
 112              		.loc 1 142 0
 113 0024 AF61     		str	r7, [r5, #24]
 114              		.loc 1 143 0
ARM GAS  /tmp/cc5R02t1.s 			page 3


 115 0026 FFF7FEFF 		bl	chThdSleep
 116              	.LVL7:
 117              		.loc 1 145 0
 118 002a 2046     		mov	r0, r4
 119              		.loc 1 144 0
 120 002c AE61     		str	r6, [r5, #24]
 121              		.loc 1 145 0
 122 002e FFF7FEFF 		bl	chThdSleep
 123              	.LVL8:
 124              	.LBE8:
 125              		.loc 1 146 0
 126 0032 EFE7     		b	.L9
 127              	.L13:
 128              		.align	2
 129              	.L12:
 130 0034 00000000 		.word	rlist
 131 0038 0C000000 		.word	.LC1
 132 003c 000C0240 		.word	1073875968
 133              		.cfi_endproc
 134              	.LFE122:
 135              		.size	usbThread, .-usbThread
 136              		.section	.text.sdGetLine,"ax",%progbits
 137              		.align	2
 138              		.p2align 4,,15
 139              		.global	sdGetLine
 140              		.thumb
 141              		.thumb_func
 142              		.type	sdGetLine, %function
 143              	sdGetLine:
 144              	.LFB120:
 145              		.loc 1 95 0
 146              		.cfi_startproc
 147              		@ args = 0, pretend = 0, frame = 0
 148              		@ frame_needed = 0, uses_anonymous_args = 0
 149              	.LVL9:
 150 0000 70B5     		push	{r4, r5, r6, lr}
 151              		.cfi_def_cfa_offset 16
 152              		.cfi_offset 4, -16
 153              		.cfi_offset 5, -12
 154              		.cfi_offset 6, -8
 155              		.cfi_offset 14, -4
 156              		.loc 1 95 0
 157 0002 0D46     		mov	r5, r1
 158 0004 00F10C06 		add	r6, r0, #12
 159 0008 0C46     		mov	r4, r1
 160 000a 00E0     		b	.L15
 161              	.LVL10:
 162              	.L16:
 163 000c 1C46     		mov	r4, r3
 164              	.LVL11:
 165              	.L15:
 166              		.loc 1 101 0 discriminator 1
 167 000e 3046     		mov	r0, r6
 168 0010 4FF0FF31 		mov	r1, #-1
 169 0014 FFF7FEFF 		bl	chIQGetTimeout
 170              	.LVL12:
 171              		.loc 1 102 0 discriminator 1
ARM GAS  /tmp/cc5R02t1.s 			page 4


 172 0018 2346     		mov	r3, r4
 173              		.loc 1 101 0 discriminator 1
 174 001a C2B2     		uxtb	r2, r0
 175              	.LVL13:
 176              		.loc 1 102 0 discriminator 1
 177 001c 03F8012B 		strb	r2, [r3], #1
 178              		.loc 1 104 0 discriminator 1
 179 0020 0A2A     		cmp	r2, #10
 180 0022 A3EB0500 		sub	r0, r3, r5
 181              	.LVL14:
 182 0026 F1D1     		bne	.L16
 183              		.loc 1 105 0
 184 0028 0023     		movs	r3, #0
 185 002a 6370     		strb	r3, [r4, #1]
 186              		.loc 1 107 0
 187 002c 70BD     		pop	{r4, r5, r6, pc}
 188              		.cfi_endproc
 189              	.LFE120:
 190              		.size	sdGetLine, .-sdGetLine
 191 002e 00BF     		.section	.text.sdPutLine,"ax",%progbits
 192              		.align	2
 193              		.p2align 4,,15
 194              		.global	sdPutLine
 195              		.thumb
 196              		.thumb_func
 197              		.type	sdPutLine, %function
 198              	sdPutLine:
 199              	.LFB121:
 200              		.loc 1 110 0
 201              		.cfi_startproc
 202              		@ args = 0, pretend = 0, frame = 0
 203              		@ frame_needed = 0, uses_anonymous_args = 0
 204              	.LVL15:
 205 0000 F8B5     		push	{r3, r4, r5, r6, r7, lr}
 206              		.cfi_def_cfa_offset 24
 207              		.cfi_offset 3, -24
 208              		.cfi_offset 4, -20
 209              		.cfi_offset 5, -16
 210              		.cfi_offset 6, -12
 211              		.cfi_offset 7, -8
 212              		.cfi_offset 14, -4
 213              		.loc 1 112 0
 214 0002 CEB2     		uxtb	r6, r1
 215              	.LVL16:
 216              		.loc 1 110 0
 217 0004 0F46     		mov	r7, r1
 218 0006 00F13005 		add	r5, r0, #48
 219              		.loc 1 112 0
 220 000a 3446     		mov	r4, r6
 221              	.LVL17:
 222              	.L19:
 223              		.loc 1 116 0 discriminator 1
 224 000c 2146     		mov	r1, r4
 225              		.loc 1 117 0 discriminator 1
 226 000e 0134     		adds	r4, r4, #1
 227              	.LVL18:
 228              		.loc 1 116 0 discriminator 1
ARM GAS  /tmp/cc5R02t1.s 			page 5


 229 0010 2846     		mov	r0, r5
 230 0012 0122     		movs	r2, #1
 231 0014 4FF0FF33 		mov	r3, #-1
 232              		.loc 1 117 0 discriminator 1
 233 0018 E4B2     		uxtb	r4, r4
 234              		.loc 1 116 0 discriminator 1
 235 001a FFF7FEFF 		bl	chOQWriteTimeout
 236              	.LVL19:
 237              		.loc 1 119 0 discriminator 1
 238 001e 0A2C     		cmp	r4, #10
 239 0020 F4D1     		bne	.L19
 240 0022 C6F10900 		rsb	r0, r6, #9
 241              		.loc 1 120 0
 242 0026 0023     		movs	r3, #0
 243 0028 C0B2     		uxtb	r0, r0
 244 002a 3B70     		strb	r3, [r7]
 245              		.loc 1 122 0
 246 002c 0130     		adds	r0, r0, #1
 247 002e F8BD     		pop	{r3, r4, r5, r6, r7, pc}
 248              		.cfi_endproc
 249              	.LFE121:
 250              		.size	sdPutLine, .-sdPutLine
 251              		.section	.text.myAtoi,"ax",%progbits
 252              		.align	2
 253              		.p2align 4,,15
 254              		.global	myAtoi
 255              		.thumb
 256              		.thumb_func
 257              		.type	myAtoi, %function
 258              	myAtoi:
 259              	.LFB123:
 260              		.loc 1 155 0
 261              		.cfi_startproc
 262              		@ args = 0, pretend = 0, frame = 0
 263              		@ frame_needed = 0, uses_anonymous_args = 0
 264              		@ link register save eliminated.
 265              	.LVL20:
 266              		.loc 1 161 0
 267 0000 0378     		ldrb	r3, [r0]	@ zero_extendqisi2
 268 0002 5BB1     		cbz	r3, .L25
 269 0004 0246     		mov	r2, r0
 270 0006 0020     		movs	r0, #0
 271              	.LVL21:
 272              	.L24:
 273              		.loc 1 162 0 discriminator 3
 274 0008 00EB8000 		add	r0, r0, r0, lsl #2
 275              	.LVL22:
 276 000c 03EB4000 		add	r0, r3, r0, lsl #1
 277              		.loc 1 161 0 discriminator 3
 278 0010 12F8013F 		ldrb	r3, [r2, #1]!	@ zero_extendqisi2
 279              	.LVL23:
 280              		.loc 1 162 0 discriminator 3
 281 0014 3038     		subs	r0, r0, #48
 282              	.LVL24:
 283              		.loc 1 161 0 discriminator 3
 284 0016 002B     		cmp	r3, #0
 285 0018 F6D1     		bne	.L24
ARM GAS  /tmp/cc5R02t1.s 			page 6


 286 001a 7047     		bx	lr
 287              	.LVL25:
 288              	.L25:
 289              		.loc 1 156 0
 290 001c 1846     		mov	r0, r3
 291              	.LVL26:
 292              		.loc 1 166 0
 293 001e 7047     		bx	lr
 294              		.cfi_endproc
 295              	.LFE123:
 296              		.size	myAtoi, .-myAtoi
 297              		.section	.text.cats,"ax",%progbits
 298              		.align	2
 299              		.p2align 4,,15
 300              		.global	cats
 301              		.thumb
 302              		.thumb_func
 303              		.type	cats, %function
 304              	cats:
 305              	.LFB124:
 306              		.loc 1 168 0
 307              		.cfi_startproc
 308              		@ args = 0, pretend = 0, frame = 0
 309              		@ frame_needed = 0, uses_anonymous_args = 0
 310              	.LVL27:
 311 0000 2DE9F041 		push	{r4, r5, r6, r7, r8, lr}
 312              		.cfi_def_cfa_offset 24
 313              		.cfi_offset 4, -24
 314              		.cfi_offset 5, -20
 315              		.cfi_offset 6, -16
 316              		.cfi_offset 7, -12
 317              		.cfi_offset 8, -8
 318              		.cfi_offset 14, -4
 319              		.loc 1 172 0
 320 0004 0668     		ldr	r6, [r0]
 321              		.loc 1 168 0
 322 0006 8046     		mov	r8, r0
 323 0008 0D46     		mov	r5, r1
 324              		.loc 1 172 0
 325 000a 96B3     		cbz	r6, .L28
 326              	.LBB9:
 327              		.loc 1 173 0 discriminator 1
 328 000c 3046     		mov	r0, r6
 329              	.LVL28:
 330              	.LBE9:
 331              		.loc 1 172 0 discriminator 1
 332 000e 0029     		cmp	r1, #0
 333 0010 43D0     		beq	.L33
 334              	.LBB10:
 335              		.loc 1 184 0
 336 0012 FFF7FEFF 		bl	strlen
 337              	.LVL29:
 338 0016 0121     		movs	r1, #1
 339 0018 0446     		mov	r4, r0
 340 001a 0130     		adds	r0, r0, #1
 341 001c FFF7FEFF 		bl	calloc
 342              	.LVL30:
ARM GAS  /tmp/cc5R02t1.s 			page 7


 343              		.loc 1 185 0
 344 0020 2246     		mov	r2, r4
 345 0022 3146     		mov	r1, r6
 346              		.loc 1 184 0
 347 0024 0746     		mov	r7, r0
 348              	.LVL31:
 349              		.loc 1 185 0
 350 0026 FFF7FEFF 		bl	memcpy
 351              	.LVL32:
 352              		.loc 1 186 0
 353 002a 2846     		mov	r0, r5
 354 002c FFF7FEFF 		bl	strlen
 355              	.LVL33:
 356 0030 2044     		add	r0, r0, r4
 357 0032 0121     		movs	r1, #1
 358 0034 0130     		adds	r0, r0, #1
 359 0036 FFF7FEFF 		bl	calloc
 360              	.LVL34:
 361 003a 0446     		mov	r4, r0
 362 003c C8F80000 		str	r0, [r8]
 363              		.loc 1 187 0
 364 0040 3846     		mov	r0, r7
 365 0042 FFF7FEFF 		bl	strlen
 366              	.LVL35:
 367 0046 3946     		mov	r1, r7
 368 0048 0246     		mov	r2, r0
 369 004a 2046     		mov	r0, r4
 370 004c FFF7FEFF 		bl	memcpy
 371              	.LVL36:
 372              		.loc 1 188 0
 373 0050 2046     		mov	r0, r4
 374 0052 FFF7FEFF 		bl	strlen
 375              	.LVL37:
 376 0056 0646     		mov	r6, r0
 377 0058 2846     		mov	r0, r5
 378 005a FFF7FEFF 		bl	strlen
 379              	.LVL38:
 380 005e 2946     		mov	r1, r5
 381 0060 0246     		mov	r2, r0
 382 0062 A019     		adds	r0, r4, r6
 383 0064 FFF7FEFF 		bl	memcpy
 384              	.LVL39:
 385              		.loc 1 189 0
 386 0068 3846     		mov	r0, r7
 387              	.LBE10:
 388              		.loc 1 192 0
 389 006a BDE8F041 		pop	{r4, r5, r6, r7, r8, lr}
 390              		.cfi_remember_state
 391              		.cfi_restore 14
 392              		.cfi_restore 8
 393              		.cfi_restore 7
 394              		.cfi_restore 6
 395              		.cfi_restore 5
 396              		.cfi_restore 4
 397              		.cfi_def_cfa_offset 0
 398              	.LVL40:
 399              	.LBB11:
ARM GAS  /tmp/cc5R02t1.s 			page 8


 400              		.loc 1 189 0
 401 006e FFF7FEBF 		b	free
 402              	.LVL41:
 403              	.L28:
 404              		.cfi_restore_state
 405              	.LBE11:
 406              	.LBB12:
 407              		.loc 1 180 0
 408 0072 0846     		mov	r0, r1
 409              	.LVL42:
 410 0074 FFF7FEFF 		bl	strlen
 411              	.LVL43:
 412 0078 0121     		movs	r1, #1
 413 007a 0844     		add	r0, r0, r1
 414 007c FFF7FEFF 		bl	calloc
 415              	.LVL44:
 416 0080 0446     		mov	r4, r0
 417 0082 C8F80000 		str	r0, [r8]
 418              		.loc 1 181 0
 419 0086 2846     		mov	r0, r5
 420 0088 FFF7FEFF 		bl	strlen
 421              	.LVL45:
 422 008c 2946     		mov	r1, r5
 423 008e 0246     		mov	r2, r0
 424 0090 2046     		mov	r0, r4
 425              	.LBE12:
 426              		.loc 1 192 0
 427 0092 BDE8F041 		pop	{r4, r5, r6, r7, r8, lr}
 428              		.cfi_remember_state
 429              		.cfi_restore 14
 430              		.cfi_restore 8
 431              		.cfi_restore 7
 432              		.cfi_restore 6
 433              		.cfi_restore 5
 434              		.cfi_restore 4
 435              		.cfi_def_cfa_offset 0
 436              	.LVL46:
 437              	.LBB13:
 438              		.loc 1 181 0
 439 0096 FFF7FEBF 		b	memcpy
 440              	.LVL47:
 441              	.L33:
 442              		.cfi_restore_state
 443              	.LBE13:
 444              	.LBB14:
 445              		.loc 1 173 0
 446 009a FFF7FEFF 		bl	free
 447              	.LVL48:
 448              		.loc 1 174 0
 449 009e C8F80050 		str	r5, [r8]
 450              		.loc 1 175 0
 451 00a2 BDE8F081 		pop	{r4, r5, r6, r7, r8, pc}
 452              	.LBE14:
 453              		.cfi_endproc
 454              	.LFE124:
 455              		.size	cats, .-cats
 456 00a6 00BF     		.section	.text.decodeRequest,"ax",%progbits
ARM GAS  /tmp/cc5R02t1.s 			page 9


 457              		.align	2
 458              		.p2align 4,,15
 459              		.global	decodeRequest
 460              		.thumb
 461              		.thumb_func
 462              		.type	decodeRequest, %function
 463              	decodeRequest:
 464              	.LFB125:
 465              		.loc 1 196 0
 466              		.cfi_startproc
 467              		@ args = 0, pretend = 0, frame = 0
 468              		@ frame_needed = 0, uses_anonymous_args = 0
 469              	.LVL49:
 470 0000 70B5     		push	{r4, r5, r6, lr}
 471              		.cfi_def_cfa_offset 16
 472              		.cfi_offset 4, -16
 473              		.cfi_offset 5, -12
 474              		.cfi_offset 6, -8
 475              		.cfi_offset 14, -4
 476              		.loc 1 207 0
 477 0002 8149     		ldr	r1, .L123
 478              		.loc 1 196 0
 479 0004 0546     		mov	r5, r0
 480              	.LVL50:
 481              		.loc 1 207 0
 482 0006 FFF7FEFF 		bl	strstr
 483              	.LVL51:
 484              		.loc 1 208 0
 485 000a 0446     		mov	r4, r0
 486 000c 58B1     		cbz	r0, .L109
 487 000e 0025     		movs	r5, #0
 488              	.LVL52:
 489              	.L98:
 490              		.loc 1 291 0
 491 0010 0A20     		movs	r0, #10
 492              	.LVL53:
 493              	.L60:
 494              		.loc 1 379 0
 495 0012 2044     		add	r0, r0, r4
 496              	.LVL54:
 497 0014 4378     		ldrb	r3, [r0, #1]	@ zero_extendqisi2
 498 0016 312B     		cmp	r3, #49
 499 0018 00D0     		beq	.L100
 500              		.loc 1 382 0
 501 001a 1035     		adds	r5, r5, #16
 502              	.LVL55:
 503              	.L100:
 504 001c 0123     		movs	r3, #1
 505 001e 7B4A     		ldr	r2, .L123+4
 506 0020 AB40     		lsls	r3, r3, r5
 507 0022 9361     		str	r3, [r2, #24]
 508 0024 70BD     		pop	{r4, r5, r6, pc}
 509              	.LVL56:
 510              	.L109:
 511              		.loc 1 217 0
 512 0026 2846     		mov	r0, r5
 513 0028 7949     		ldr	r1, .L123+8
ARM GAS  /tmp/cc5R02t1.s 			page 10


 514 002a FFF7FEFF 		bl	strstr
 515              	.LVL57:
 516              		.loc 1 218 0
 517 002e 0446     		mov	r4, r0
 518 0030 08B1     		cbz	r0, .L110
 519              		.loc 1 222 0
 520 0032 0125     		movs	r5, #1
 521              	.LVL58:
 522 0034 ECE7     		b	.L98
 523              	.LVL59:
 524              	.L110:
 525              		.loc 1 227 0
 526 0036 2846     		mov	r0, r5
 527 0038 7649     		ldr	r1, .L123+12
 528 003a FFF7FEFF 		bl	strstr
 529              	.LVL60:
 530              		.loc 1 228 0
 531 003e 0446     		mov	r4, r0
 532 0040 10B1     		cbz	r0, .L111
 533              		.loc 1 232 0
 534 0042 0225     		movs	r5, #2
 535              	.LVL61:
 536              		.loc 1 231 0
 537 0044 0920     		movs	r0, #9
 538              	.LVL62:
 539 0046 E4E7     		b	.L60
 540              	.LVL63:
 541              	.L111:
 542              		.loc 1 237 0
 543 0048 2846     		mov	r0, r5
 544 004a 7349     		ldr	r1, .L123+16
 545 004c FFF7FEFF 		bl	strstr
 546              	.LVL64:
 547              		.loc 1 238 0
 548 0050 0446     		mov	r4, r0
 549 0052 10B1     		cbz	r0, .L112
 550              		.loc 1 242 0
 551 0054 0325     		movs	r5, #3
 552              	.LVL65:
 553              		.loc 1 241 0
 554 0056 0D20     		movs	r0, #13
 555              	.LVL66:
 556 0058 DBE7     		b	.L60
 557              	.LVL67:
 558              	.L112:
 559              		.loc 1 247 0
 560 005a 2846     		mov	r0, r5
 561 005c 6F49     		ldr	r1, .L123+20
 562 005e FFF7FEFF 		bl	strstr
 563              	.LVL68:
 564              		.loc 1 248 0
 565 0062 0446     		mov	r4, r0
 566 0064 10B1     		cbz	r0, .L113
 567              		.loc 1 252 0
 568 0066 0425     		movs	r5, #4
 569              	.LVL69:
 570              		.loc 1 251 0
ARM GAS  /tmp/cc5R02t1.s 			page 11


 571 0068 0A20     		movs	r0, #10
 572              	.LVL70:
 573 006a D2E7     		b	.L60
 574              	.LVL71:
 575              	.L113:
 576              		.loc 1 257 0
 577 006c 2846     		mov	r0, r5
 578 006e 6C49     		ldr	r1, .L123+24
 579 0070 FFF7FEFF 		bl	strstr
 580              	.LVL72:
 581              		.loc 1 258 0
 582 0074 0446     		mov	r4, r0
 583 0076 10B1     		cbz	r0, .L114
 584              		.loc 1 262 0
 585 0078 0625     		movs	r5, #6
 586              	.LVL73:
 587              		.loc 1 261 0
 588 007a 0820     		movs	r0, #8
 589              	.LVL74:
 590 007c C9E7     		b	.L60
 591              	.LVL75:
 592              	.L114:
 593              		.loc 1 267 0
 594 007e 2846     		mov	r0, r5
 595 0080 6849     		ldr	r1, .L123+28
 596 0082 FFF7FEFF 		bl	strstr
 597              	.LVL76:
 598              		.loc 1 268 0
 599 0086 0446     		mov	r4, r0
 600 0088 10B1     		cbz	r0, .L53
 601              		.loc 1 272 0
 602 008a 0725     		movs	r5, #7
 603              	.LVL77:
 604              		.loc 1 271 0
 605 008c 0520     		movs	r0, #5
 606              	.LVL78:
 607 008e C0E7     		b	.L60
 608              	.LVL79:
 609              	.L53:
 610              		.loc 1 277 0
 611 0090 2846     		mov	r0, r5
 612 0092 6549     		ldr	r1, .L123+32
 613 0094 FFF7FEFF 		bl	strstr
 614              	.LVL80:
 615              		.loc 1 278 0
 616 0098 0446     		mov	r4, r0
 617 009a 10B1     		cbz	r0, .L55
 618              		.loc 1 282 0
 619 009c 0825     		movs	r5, #8
 620              	.LVL81:
 621              		.loc 1 281 0
 622 009e 0920     		movs	r0, #9
 623              	.LVL82:
 624 00a0 B7E7     		b	.L60
 625              	.LVL83:
 626              	.L55:
 627              		.loc 1 287 0
ARM GAS  /tmp/cc5R02t1.s 			page 12


 628 00a2 2846     		mov	r0, r5
 629 00a4 6149     		ldr	r1, .L123+36
 630 00a6 FFF7FEFF 		bl	strstr
 631              	.LVL84:
 632              		.loc 1 288 0
 633 00aa 0446     		mov	r4, r0
 634 00ac 08B1     		cbz	r0, .L115
 635              		.loc 1 292 0
 636 00ae 0925     		movs	r5, #9
 637              	.LVL85:
 638 00b0 AEE7     		b	.L98
 639              	.LVL86:
 640              	.L115:
 641              		.loc 1 297 0
 642 00b2 2846     		mov	r0, r5
 643 00b4 5E49     		ldr	r1, .L123+40
 644 00b6 FFF7FEFF 		bl	strstr
 645              	.LVL87:
 646              		.loc 1 298 0
 647 00ba 0446     		mov	r4, r0
 648 00bc 10B1     		cbz	r0, .L116
 649              		.loc 1 302 0
 650 00be 0A25     		movs	r5, #10
 651              	.LVL88:
 652              		.loc 1 301 0
 653 00c0 2846     		mov	r0, r5
 654              	.LVL89:
 655 00c2 A6E7     		b	.L60
 656              	.LVL90:
 657              	.L116:
 658              		.loc 1 307 0
 659 00c4 2846     		mov	r0, r5
 660 00c6 5B49     		ldr	r1, .L123+44
 661 00c8 FFF7FEFF 		bl	strstr
 662              	.LVL91:
 663              		.loc 1 308 0
 664 00cc 0446     		mov	r4, r0
 665 00ce 10B1     		cbz	r0, .L117
 666              		.loc 1 312 0
 667 00d0 0B25     		movs	r5, #11
 668              	.LVL92:
 669              		.loc 1 311 0
 670 00d2 2846     		mov	r0, r5
 671              	.LVL93:
 672 00d4 9DE7     		b	.L60
 673              	.LVL94:
 674              	.L117:
 675              		.loc 1 317 0
 676 00d6 2846     		mov	r0, r5
 677 00d8 5749     		ldr	r1, .L123+48
 678 00da FFF7FEFF 		bl	strstr
 679              	.LVL95:
 680              		.loc 1 318 0
 681 00de 0446     		mov	r4, r0
 682 00e0 10B1     		cbz	r0, .L118
 683              		.loc 1 322 0
 684 00e2 0C25     		movs	r5, #12
ARM GAS  /tmp/cc5R02t1.s 			page 13


 685              	.LVL96:
 686              		.loc 1 321 0
 687 00e4 0820     		movs	r0, #8
 688              	.LVL97:
 689 00e6 94E7     		b	.L60
 690              	.LVL98:
 691              	.L118:
 692              		.loc 1 328 0
 693 00e8 2846     		mov	r0, r5
 694 00ea 5449     		ldr	r1, .L123+52
 695 00ec FFF7FEFF 		bl	strstr
 696              	.LVL99:
 697              		.loc 1 329 0
 698 00f0 0446     		mov	r4, r0
 699 00f2 90B1     		cbz	r0, .L119
 700              		.loc 1 333 0
 701 00f4 0525     		movs	r5, #5
 702              	.LVL100:
 703              		.loc 1 332 0
 704 00f6 0B20     		movs	r0, #11
 705              	.LVL101:
 706              	.L70:
 707 00f8 0130     		adds	r0, r0, #1
 708              	.LVL102:
 709              	.LBB15:
 710              		.loc 1 387 0
 711 00fa 2044     		add	r0, r0, r4
 712              	.LVL103:
 713 00fc 0021     		movs	r1, #0
 714 00fe 0A22     		movs	r2, #10
 715 0100 FFF7FEFF 		bl	strtol
 716              	.LVL104:
 717              		.loc 1 388 0
 718 0104 4E4B     		ldr	r3, .L123+56
 719              		.loc 1 390 0
 720 0106 053D     		subs	r5, r5, #5
 721              	.LVL105:
 722              		.loc 1 388 0
 723 0108 1860     		str	r0, [r3]
 724              		.loc 1 390 0
 725 010a 042D     		cmp	r5, #4
 726 010c 04D8     		bhi	.L34
 727 010e DFE805F0 		tbb	[pc, r5]
 728              	.L40:
 729 0112 66       		.byte	(.L39-.L40)/2
 730 0113 68       		.byte	(.L41-.L40)/2
 731 0114 54       		.byte	(.L42-.L40)/2
 732 0115 23       		.byte	(.L43-.L40)/2
 733 0116 42       		.byte	(.L44-.L40)/2
 734              	.LVL106:
 735 0117 00       		.p2align 1
 736              	.L34:
 737 0118 70BD     		pop	{r4, r5, r6, pc}
 738              	.LVL107:
 739              	.L119:
 740              	.LBE15:
 741              		.loc 1 338 0
ARM GAS  /tmp/cc5R02t1.s 			page 14


 742 011a 2846     		mov	r0, r5
 743 011c 4949     		ldr	r1, .L123+60
 744 011e FFF7FEFF 		bl	strstr
 745              	.LVL108:
 746              		.loc 1 339 0
 747 0122 0446     		mov	r4, r0
 748 0124 10B1     		cbz	r0, .L120
 749              		.loc 1 343 0
 750 0126 0625     		movs	r5, #6
 751              	.LVL109:
 752              		.loc 1 342 0
 753 0128 0E20     		movs	r0, #14
 754              	.LVL110:
 755 012a E5E7     		b	.L70
 756              	.LVL111:
 757              	.L120:
 758              		.loc 1 348 0
 759 012c 2846     		mov	r0, r5
 760 012e 4649     		ldr	r1, .L123+64
 761 0130 FFF7FEFF 		bl	strstr
 762              	.LVL112:
 763              		.loc 1 349 0
 764 0134 0446     		mov	r4, r0
 765 0136 10B1     		cbz	r0, .L121
 766              		.loc 1 353 0
 767 0138 0725     		movs	r5, #7
 768              	.LVL113:
 769              		.loc 1 352 0
 770 013a 0920     		movs	r0, #9
 771              	.LVL114:
 772 013c DCE7     		b	.L70
 773              	.LVL115:
 774              	.L121:
 775              		.loc 1 358 0
 776 013e 2846     		mov	r0, r5
 777 0140 4249     		ldr	r1, .L123+68
 778 0142 FFF7FEFF 		bl	strstr
 779              	.LVL116:
 780              		.loc 1 359 0
 781 0146 0646     		mov	r6, r0
 782 0148 C0B1     		cbz	r0, .L122
 783              	.LVL117:
 784              	.LBB16:
 785              		.loc 1 387 0
 786 014a 0930     		adds	r0, r0, #9
 787              	.LVL118:
 788 014c 2146     		mov	r1, r4
 789 014e 0A22     		movs	r2, #10
 790 0150 FFF7FEFF 		bl	strtol
 791              	.LVL119:
 792              		.loc 1 388 0
 793 0154 3A4B     		ldr	r3, .L123+56
 794 0156 1860     		str	r0, [r3]
 795              	.LVL120:
 796              	.L43:
 797              		.loc 1 398 0
 798 0158 3D49     		ldr	r1, .L123+72
ARM GAS  /tmp/cc5R02t1.s 			page 15


 799 015a 3E4A     		ldr	r2, .L123+76
 800 015c 0C89     		ldrh	r4, [r1, #8]
 801 015e 83B2     		uxth	r3, r0
 802 0160 03FB04F3 		mul	r3, r3, r4
 803 0164 82FB0302 		smull	r0, r2, r2, r3
 804 0168 DB17     		asrs	r3, r3, #31
 805 016a C3EB2232 		rsb	r2, r3, r2, asr #12
 806 016e 0846     		mov	r0, r1
 807 0170 92B2     		uxth	r2, r2
 808 0172 0221     		movs	r1, #2
 809              	.LBE16:
 810              		.loc 1 403 0
 811 0174 BDE87040 		pop	{r4, r5, r6, lr}
 812              		.cfi_remember_state
 813              		.cfi_restore 14
 814              		.cfi_restore 6
 815              		.cfi_restore 5
 816              		.cfi_restore 4
 817              		.cfi_def_cfa_offset 0
 818              	.LBB17:
 819              		.loc 1 398 0
 820 0178 FFF7FEBF 		b	pwmEnableChannel
 821              	.LVL121:
 822              	.L122:
 823              		.cfi_restore_state
 824              	.LBE17:
 825              		.loc 1 368 0
 826 017c 2846     		mov	r0, r5
 827 017e 3649     		ldr	r1, .L123+80
 828 0180 FFF7FEFF 		bl	strstr
 829              	.LVL122:
 830              		.loc 1 369 0
 831 0184 0028     		cmp	r0, #0
 832 0186 C7D0     		beq	.L34
 833              	.LVL123:
 834              	.LBB18:
 835              		.loc 1 387 0
 836 0188 0B30     		adds	r0, r0, #11
 837              	.LVL124:
 838 018a 3146     		mov	r1, r6
 839 018c 0A22     		movs	r2, #10
 840 018e FFF7FEFF 		bl	strtol
 841              	.LVL125:
 842              		.loc 1 388 0
 843 0192 2B4B     		ldr	r3, .L123+56
 844 0194 1860     		str	r0, [r3]
 845              	.LVL126:
 846              	.L44:
 847              		.loc 1 400 0
 848 0196 2E49     		ldr	r1, .L123+72
 849 0198 2E4A     		ldr	r2, .L123+76
 850 019a 0C89     		ldrh	r4, [r1, #8]
 851 019c 83B2     		uxth	r3, r0
 852 019e 03FB04F3 		mul	r3, r3, r4
 853 01a2 82FB0302 		smull	r0, r2, r2, r3
 854 01a6 DB17     		asrs	r3, r3, #31
 855 01a8 C3EB2232 		rsb	r2, r3, r2, asr #12
ARM GAS  /tmp/cc5R02t1.s 			page 16


 856 01ac 0846     		mov	r0, r1
 857 01ae 92B2     		uxth	r2, r2
 858 01b0 0321     		movs	r1, #3
 859              	.LBE18:
 860              		.loc 1 403 0
 861 01b2 BDE87040 		pop	{r4, r5, r6, lr}
 862              		.cfi_remember_state
 863              		.cfi_restore 14
 864              		.cfi_restore 6
 865              		.cfi_restore 5
 866              		.cfi_restore 4
 867              		.cfi_def_cfa_offset 0
 868              	.LBB19:
 869              		.loc 1 400 0
 870 01b6 FFF7FEBF 		b	pwmEnableChannel
 871              	.LVL127:
 872              	.L42:
 873              		.cfi_restore_state
 874              		.loc 1 396 0
 875 01ba 2549     		ldr	r1, .L123+72
 876              	.L99:
 877 01bc 0C89     		ldrh	r4, [r1, #8]
 878              	.LVL128:
 879 01be 254A     		ldr	r2, .L123+76
 880 01c0 83B2     		uxth	r3, r0
 881 01c2 03FB04F3 		mul	r3, r3, r4
 882 01c6 82FB0302 		smull	r0, r2, r2, r3
 883              	.LVL129:
 884 01ca DB17     		asrs	r3, r3, #31
 885 01cc C3EB2232 		rsb	r2, r3, r2, asr #12
 886 01d0 0846     		mov	r0, r1
 887 01d2 92B2     		uxth	r2, r2
 888 01d4 0121     		movs	r1, #1
 889              	.LBE19:
 890              		.loc 1 403 0
 891 01d6 BDE87040 		pop	{r4, r5, r6, lr}
 892              		.cfi_remember_state
 893              		.cfi_restore 14
 894              		.cfi_restore 6
 895              		.cfi_restore 5
 896              		.cfi_restore 4
 897              		.cfi_def_cfa_offset 0
 898              	.LVL130:
 899              	.LBB20:
 900              		.loc 1 396 0
 901 01da FFF7FEBF 		b	pwmEnableChannel
 902              	.LVL131:
 903              	.L39:
 904              		.cfi_restore_state
 905              		.loc 1 392 0
 906 01de 1F49     		ldr	r1, .L123+84
 907 01e0 ECE7     		b	.L99
 908              	.L41:
 909              		.loc 1 394 0
 910 01e2 1B49     		ldr	r1, .L123+72
 911 01e4 1B4A     		ldr	r2, .L123+76
 912 01e6 0C89     		ldrh	r4, [r1, #8]
ARM GAS  /tmp/cc5R02t1.s 			page 17


 913              	.LVL132:
 914 01e8 83B2     		uxth	r3, r0
 915 01ea 03FB04F3 		mul	r3, r3, r4
 916 01ee 82FB0302 		smull	r0, r2, r2, r3
 917              	.LVL133:
 918 01f2 DB17     		asrs	r3, r3, #31
 919 01f4 C3EB2232 		rsb	r2, r3, r2, asr #12
 920 01f8 0846     		mov	r0, r1
 921 01fa 92B2     		uxth	r2, r2
 922 01fc 0021     		movs	r1, #0
 923              	.LBE20:
 924              		.loc 1 403 0
 925 01fe BDE87040 		pop	{r4, r5, r6, lr}
 926              		.cfi_restore 14
 927              		.cfi_restore 6
 928              		.cfi_restore 5
 929              		.cfi_restore 4
 930              		.cfi_def_cfa_offset 0
 931              	.LVL134:
 932              	.LBB21:
 933              		.loc 1 394 0
 934 0202 FFF7FEBF 		b	pwmEnableChannel
 935              	.LVL135:
 936              	.L124:
 937 0206 00BF     		.align	2
 938              	.L123:
 939 0208 10000000 		.word	.LC2
 940 020c 000C0240 		.word	1073875968
 941 0210 1C000000 		.word	.LC3
 942 0214 28000000 		.word	.LC4
 943 0218 34000000 		.word	.LC5
 944 021c 44000000 		.word	.LC6
 945 0220 50000000 		.word	.LC7
 946 0224 5C000000 		.word	.LC8
 947 0228 64000000 		.word	.LC9
 948 022c 70000000 		.word	.LC10
 949 0230 7C000000 		.word	.LC11
 950 0234 88000000 		.word	.LC12
 951 0238 94000000 		.word	.LC13
 952 023c A0000000 		.word	.LC14
 953 0240 00000000 		.word	.LANCHOR2
 954 0244 AC000000 		.word	.LC15
 955 0248 BC000000 		.word	.LC16
 956 024c C8000000 		.word	.LC17
 957 0250 00000000 		.word	PWMD4
 958 0254 AD8BDB68 		.word	1759218605
 959 0258 D4000000 		.word	.LC18
 960 025c 00000000 		.word	PWMD3
 961              	.LBE21:
 962              		.cfi_endproc
 963              	.LFE125:
 964              		.size	decodeRequest, .-decodeRequest
 965              		.section	.text.decodeNextNetstring.part.0,"ax",%progbits
 966              		.align	2
 967              		.p2align 4,,15
 968              		.thumb
 969              		.thumb_func
ARM GAS  /tmp/cc5R02t1.s 			page 18


 970              		.type	decodeNextNetstring.part.0, %function
 971              	decodeNextNetstring.part.0:
 972              	.LFB133:
 973              		.loc 1 407 0
 974              		.cfi_startproc
 975              		@ args = 0, pretend = 0, frame = 8
 976              		@ frame_needed = 0, uses_anonymous_args = 0
 977 0000 70B5     		push	{r4, r5, r6, lr}
 978              		.cfi_def_cfa_offset 16
 979              		.cfi_offset 4, -16
 980              		.cfi_offset 5, -12
 981              		.cfi_offset 6, -8
 982              		.cfi_offset 14, -4
 983 0002 82B0     		sub	sp, sp, #8
 984              		.cfi_def_cfa_offset 24
 985              	.LBB22:
 986              		.loc 1 413 0
 987 0004 02A9     		add	r1, sp, #8
 988              		.loc 1 417 0
 989 0006 154C     		ldr	r4, .L131
 990              		.loc 1 413 0
 991 0008 0023     		movs	r3, #0
 992 000a 41F8043D 		str	r3, [r1, #-4]!
 993              		.loc 1 417 0
 994 000e 2046     		mov	r0, r4
 995 0010 0A22     		movs	r2, #10
 996 0012 FFF7FEFF 		bl	strtol
 997              	.LVL136:
 998              		.loc 1 418 0
 999 0016 0199     		ldr	r1, [sp, #4]
 1000 0018 0B78     		ldrb	r3, [r1]	@ zero_extendqisi2
 1001 001a 3A2B     		cmp	r3, #58
 1002 001c 01D0     		beq	.L130
 1003              	.LVL137:
 1004              	.L125:
 1005              	.LBE22:
 1006              		.loc 1 444 0
 1007 001e 02B0     		add	sp, sp, #8
 1008              		.cfi_remember_state
 1009              		.cfi_def_cfa_offset 16
 1010              		@ sp needed
 1011 0020 70BD     		pop	{r4, r5, r6, pc}
 1012              	.LVL138:
 1013              	.L130:
 1014              		.cfi_restore_state
 1015              	.LBB24:
 1016              		.loc 1 421 0
 1017 0022 0F4E     		ldr	r6, .L131+4
 1018 0024 3368     		ldr	r3, [r6]
 1019 0026 9842     		cmp	r0, r3
 1020 0028 0546     		mov	r5, r0
 1021              	.LVL139:
 1022 002a F8DC     		bgt	.L125
 1023              		.loc 1 427 0
 1024 002c 421C     		adds	r2, r0, #1
 1025 002e 8B5C     		ldrb	r3, [r1, r2]	@ zero_extendqisi2
 1026 0030 3B2B     		cmp	r3, #59
ARM GAS  /tmp/cc5R02t1.s 			page 19


 1027 0032 F4D1     		bne	.L125
 1028              	.LBB23:
 1029              		.loc 1 429 0
 1030 0034 0131     		adds	r1, r1, #1
 1031 0036 0B48     		ldr	r0, .L131+8
 1032 0038 FFF7FEFF 		bl	memcpy
 1033              	.LVL140:
 1034              		.loc 1 430 0
 1035 003c 0948     		ldr	r0, .L131+8
 1036 003e FFF7FEFF 		bl	decodeRequest
 1037              	.LVL141:
 1038              		.loc 1 432 0
 1039 0042 0199     		ldr	r1, [sp, #4]
 1040 0044 0235     		adds	r5, r5, #2
 1041 0046 2944     		add	r1, r1, r5
 1042 0048 0D1B     		subs	r5, r1, r4
 1043              	.LVL142:
 1044              		.loc 1 434 0
 1045 004a 2046     		mov	r0, r4
 1046 004c C5F18002 		rsb	r2, r5, #128
 1047 0050 FFF7FEFF 		bl	memmove
 1048              	.LVL143:
 1049              		.loc 1 437 0
 1050 0054 3368     		ldr	r3, [r6]
 1051 0056 5B1B     		subs	r3, r3, r5
 1052 0058 3360     		str	r3, [r6]
 1053 005a E0E7     		b	.L125
 1054              	.L132:
 1055              		.align	2
 1056              	.L131:
 1057 005c 00000000 		.word	.LANCHOR3
 1058 0060 00000000 		.word	.LANCHOR4
 1059 0064 00000000 		.word	.LANCHOR5
 1060              	.LBE23:
 1061              	.LBE24:
 1062              		.cfi_endproc
 1063              	.LFE133:
 1064              		.size	decodeNextNetstring.part.0, .-decodeNextNetstring.part.0
 1065              		.section	.text.decodeNextNetstring,"ax",%progbits
 1066              		.align	2
 1067              		.p2align 4,,15
 1068              		.global	decodeNextNetstring
 1069              		.thumb
 1070              		.thumb_func
 1071              		.type	decodeNextNetstring, %function
 1072              	decodeNextNetstring:
 1073              	.LFB126:
 1074              		.loc 1 407 0
 1075              		.cfi_startproc
 1076              		@ args = 0, pretend = 0, frame = 0
 1077              		@ frame_needed = 0, uses_anonymous_args = 0
 1078              		@ link register save eliminated.
 1079              		.loc 1 412 0
 1080 0000 034B     		ldr	r3, .L136
 1081 0002 1B68     		ldr	r3, [r3]
 1082 0004 032B     		cmp	r3, #3
 1083 0006 00DC     		bgt	.L135
ARM GAS  /tmp/cc5R02t1.s 			page 20


 1084 0008 7047     		bx	lr
 1085              	.L135:
 1086 000a FFF7FEBF 		b	decodeNextNetstring.part.0
 1087              	.LVL144:
 1088              	.L137:
 1089 000e 00BF     		.align	2
 1090              	.L136:
 1091 0010 00000000 		.word	.LANCHOR4
 1092              		.cfi_endproc
 1093              	.LFE126:
 1094              		.size	decodeNextNetstring, .-decodeNextNetstring
 1095              		.section	.text.consumeNetstrings,"ax",%progbits
 1096              		.align	2
 1097              		.p2align 4,,15
 1098              		.global	consumeNetstrings
 1099              		.thumb
 1100              		.thumb_func
 1101              		.type	consumeNetstrings, %function
 1102              	consumeNetstrings:
 1103              	.LFB127:
 1104              		.loc 1 446 0
 1105              		.cfi_startproc
 1106              		@ args = 0, pretend = 0, frame = 0
 1107              		@ frame_needed = 0, uses_anonymous_args = 0
 1108              	.LVL145:
 1109 0000 38B5     		push	{r3, r4, r5, lr}
 1110              		.cfi_def_cfa_offset 16
 1111              		.cfi_offset 3, -16
 1112              		.cfi_offset 4, -12
 1113              		.cfi_offset 5, -8
 1114              		.cfi_offset 14, -4
 1115 0002 074D     		ldr	r5, .L144
 1116              		.loc 1 448 0
 1117 0004 2C68     		ldr	r4, [r5]
 1118 0006 032C     		cmp	r4, #3
 1119              		.loc 1 447 0
 1120 0008 4FF00003 		mov	r3, #0
 1121              	.LVL146:
 1122              		.loc 1 448 0
 1123 000c 07DD     		ble	.L138
 1124              	.L143:
 1125              		.loc 1 448 0 is_stmt 0 discriminator 1
 1126 000e A342     		cmp	r3, r4
 1127 0010 05D0     		beq	.L138
 1128              	.LBB25:
 1129              	.LBB26:
 1130 0012 FFF7FEFF 		bl	decodeNextNetstring.part.0
 1131              	.LVL147:
 1132 0016 2346     		mov	r3, r4
 1133              	.LBE26:
 1134              	.LBE25:
 1135              		.loc 1 448 0
 1136 0018 2C68     		ldr	r4, [r5]
 1137              	.LVL148:
 1138 001a 032C     		cmp	r4, #3
 1139 001c F7DC     		bgt	.L143
 1140              	.L138:
ARM GAS  /tmp/cc5R02t1.s 			page 21


 1141 001e 38BD     		pop	{r3, r4, r5, pc}
 1142              	.LVL149:
 1143              	.L145:
 1144              		.align	2
 1145              	.L144:
 1146 0020 00000000 		.word	.LANCHOR4
 1147              		.cfi_endproc
 1148              	.LFE127:
 1149              		.size	consumeNetstrings, .-consumeNetstrings
 1150              		.section	.text.readThread,"ax",%progbits
 1151              		.align	2
 1152              		.p2align 4,,15
 1153              		.thumb
 1154              		.thumb_func
 1155              		.type	readThread, %function
 1156              	readThread:
 1157              	.LFB128:
 1158              		.loc 1 456 0 is_stmt 1
 1159              		.cfi_startproc
 1160              		@ Volatile: function does not return.
 1161              		@ args = 0, pretend = 0, frame = 0
 1162              		@ frame_needed = 0, uses_anonymous_args = 0
 1163              	.LVL150:
 1164              		.loc 1 457 0
 1165 0000 124B     		ldr	r3, .L154
 1166 0002 134A     		ldr	r2, .L154+4
 1167 0004 9B69     		ldr	r3, [r3, #24]
 1168 0006 134E     		ldr	r6, .L154+8
 1169 0008 134D     		ldr	r5, .L154+12
 1170 000a DFF85C90 		ldr	r9, .L154+28
 1171              		.loc 1 456 0
 1172 000e 80B5     		push	{r7, lr}
 1173              		.cfi_def_cfa_offset 8
 1174              		.cfi_offset 7, -8
 1175              		.cfi_offset 14, -4
 1176 0010 124F     		ldr	r7, .L154+16
 1177              		.loc 1 457 0
 1178 0012 9A61     		str	r2, [r3, #24]
 1179              		.loc 1 466 0
 1180 0014 B846     		mov	r8, r7
 1181 0016 04E0     		b	.L149
 1182              	.LVL151:
 1183              	.L148:
 1184              		.loc 1 471 0
 1185 0018 FFF7FEFF 		bl	consumeNetstrings
 1186              	.LVL152:
 1187              	.L147:
 1188              		.loc 1 474 0
 1189 001c 0520     		movs	r0, #5
 1190 001e FFF7FEFF 		bl	chThdSleep
 1191              	.LVL153:
 1192              	.L149:
 1193              		.loc 1 460 0
 1194 0022 4022     		movs	r2, #64
 1195 0024 0E48     		ldr	r0, .L154+20
 1196 0026 0F49     		ldr	r1, .L154+24
 1197 0028 3368     		ldr	r3, [r6]
ARM GAS  /tmp/cc5R02t1.s 			page 22


 1198 002a FFF7FEFF 		bl	chIQReadTimeout
 1199              	.LVL154:
 1200 002e 0246     		mov	r2, r0
 1201 0030 2860     		str	r0, [r5]
 1202              		.loc 1 463 0
 1203 0032 0028     		cmp	r0, #0
 1204 0034 F2D0     		beq	.L147
 1205              		.loc 1 466 0
 1206 0036 3868     		ldr	r0, [r7]
 1207 0038 1418     		adds	r4, r2, r0
 1208 003a 7F2C     		cmp	r4, #127
 1209 003c ECD8     		bhi	.L148
 1210              		.loc 1 467 0
 1211 003e 4844     		add	r0, r0, r9
 1212 0040 0849     		ldr	r1, .L154+24
 1213 0042 FFF7FEFF 		bl	memcpy
 1214              	.LVL155:
 1215              		.loc 1 468 0
 1216 0046 C8F80040 		str	r4, [r8]
 1217 004a E5E7     		b	.L148
 1218              	.L155:
 1219              		.align	2
 1220              	.L154:
 1221 004c 00000000 		.word	rlist
 1222 0050 E0000000 		.word	.LC19
 1223 0054 00000000 		.word	.LANCHOR7
 1224 0058 00000000 		.word	.LANCHOR8
 1225 005c 00000000 		.word	.LANCHOR4
 1226 0060 0C000000 		.word	SDU1+12
 1227 0064 00000000 		.word	.LANCHOR6
 1228 0068 00000000 		.word	.LANCHOR3
 1229              		.cfi_endproc
 1230              	.LFE128:
 1231              		.size	readThread, .-readThread
 1232              		.section	.text.writeAnalog,"ax",%progbits
 1233              		.align	2
 1234              		.p2align 4,,15
 1235              		.global	writeAnalog
 1236              		.thumb
 1237              		.thumb_func
 1238              		.type	writeAnalog, %function
 1239              	writeAnalog:
 1240              	.LFB129:
 1241              		.loc 1 478 0
 1242              		.cfi_startproc
 1243              		@ args = 0, pretend = 0, frame = 64
 1244              		@ frame_needed = 0, uses_anonymous_args = 0
 1245              	.LVL156:
 1246 0000 70B5     		push	{r4, r5, r6, lr}
 1247              		.cfi_def_cfa_offset 16
 1248              		.cfi_offset 4, -16
 1249              		.cfi_offset 5, -12
 1250              		.cfi_offset 6, -8
 1251              		.cfi_offset 14, -4
 1252 0002 90B0     		sub	sp, sp, #64
 1253              		.cfi_def_cfa_offset 80
 1254              		.loc 1 478 0
ARM GAS  /tmp/cc5R02t1.s 			page 23


 1255 0004 0346     		mov	r3, r0
 1256 0006 0A46     		mov	r2, r1
 1257              		.loc 1 481 0
 1258 0008 6846     		mov	r0, sp
 1259              	.LVL157:
 1260 000a 0A49     		ldr	r1, .L163
 1261              	.LVL158:
 1262 000c FFF7FEFF 		bl	sprintf
 1263              	.LVL159:
 1264              		.loc 1 485 0
 1265 0010 041E     		subs	r4, r0, #0
 1266 0012 0ADD     		ble	.L159
 1267 0014 084E     		ldr	r6, .L163+4
 1268 0016 2546     		mov	r5, r4
 1269              	.LVL160:
 1270              	.L158:
 1271              		.loc 1 486 0
 1272 0018 0848     		ldr	r0, .L163+8
 1273 001a 3368     		ldr	r3, [r6]
 1274 001c 6946     		mov	r1, sp
 1275 001e 2A46     		mov	r2, r5
 1276 0020 FFF7FEFF 		bl	chOQWriteTimeout
 1277              	.LVL161:
 1278              		.loc 1 487 0
 1279 0024 241A     		subs	r4, r4, r0
 1280              	.LVL162:
 1281              		.loc 1 485 0
 1282 0026 002C     		cmp	r4, #0
 1283 0028 F6DC     		bgt	.L158
 1284              	.LVL163:
 1285              	.L159:
 1286              		.loc 1 489 0
 1287 002a 0120     		movs	r0, #1
 1288 002c FFF7FEFF 		bl	chThdSleep
 1289              	.LVL164:
 1290              		.loc 1 490 0
 1291 0030 10B0     		add	sp, sp, #64
 1292              		.cfi_def_cfa_offset 16
 1293              		@ sp needed
 1294 0032 70BD     		pop	{r4, r5, r6, pc}
 1295              	.LVL165:
 1296              	.L164:
 1297              		.align	2
 1298              	.L163:
 1299 0034 EC000000 		.word	.LC20
 1300 0038 00000000 		.word	.LANCHOR7
 1301 003c 30000000 		.word	SDU1+48
 1302              		.cfi_endproc
 1303              	.LFE129:
 1304              		.size	writeAnalog, .-writeAnalog
 1305              		.section	.text.writeThread,"ax",%progbits
 1306              		.align	2
 1307              		.p2align 4,,15
 1308              		.thumb
 1309              		.thumb_func
 1310              		.type	writeThread, %function
 1311              	writeThread:
ARM GAS  /tmp/cc5R02t1.s 			page 24


 1312              	.LFB130:
 1313              		.loc 1 494 0
 1314              		.cfi_startproc
 1315              		@ args = 0, pretend = 0, frame = 72
 1316              		@ frame_needed = 0, uses_anonymous_args = 0
 1317              	.LVL166:
 1318 0000 2DE9F04F 		push	{r4, r5, r6, r7, r8, r9, r10, fp, lr}
 1319              		.cfi_def_cfa_offset 36
 1320              		.cfi_offset 4, -36
 1321              		.cfi_offset 5, -32
 1322              		.cfi_offset 6, -28
 1323              		.cfi_offset 7, -24
 1324              		.cfi_offset 8, -20
 1325              		.cfi_offset 9, -16
 1326              		.cfi_offset 10, -12
 1327              		.cfi_offset 11, -8
 1328              		.cfi_offset 14, -4
 1329              		.loc 1 496 0
 1330 0004 554B     		ldr	r3, .L168
 1331 0006 564A     		ldr	r2, .L168+4
 1332 0008 9B69     		ldr	r3, [r3, #24]
 1333 000a 564C     		ldr	r4, .L168+8
 1334 000c 9A61     		str	r2, [r3, #24]
 1335              		.loc 1 494 0
 1336 000e 93B0     		sub	sp, sp, #76
 1337              		.cfi_def_cfa_offset 112
 1338              	.LVL167:
 1339              	.L166:
 1340              	.LBB27:
 1341              		.loc 1 502 0 discriminator 1
 1342 0010 B4F806A0 		ldrh	r10, [r4, #6]
 1343 0014 618A     		ldrh	r1, [r4, #18]
 1344              		.loc 1 499 0 discriminator 1
 1345 0016 B4F80CC0 		ldrh	ip, [r4, #12]
 1346              	.LVL168:
 1347              		.loc 1 504 0 discriminator 1
 1348 001a B4F80A90 		ldrh	r9, [r4, #10]
 1349              		.loc 1 499 0 discriminator 1
 1350 001e 2288     		ldrh	r2, [r4]
 1351              	.LVL169:
 1352              		.loc 1 504 0 discriminator 1
 1353 0020 E38A     		ldrh	r3, [r4, #22]
 1354              		.loc 1 500 0 discriminator 1
 1355 0022 B4F802B0 		ldrh	fp, [r4, #2]
 1356              		.loc 1 501 0 discriminator 1
 1357 0026 B4F804E0 		ldrh	lr, [r4, #4]
 1358              		.loc 1 500 0 discriminator 1
 1359 002a E689     		ldrh	r6, [r4, #14]
 1360              		.loc 1 501 0 discriminator 1
 1361 002c 258A     		ldrh	r5, [r4, #16]
 1362              		.loc 1 499 0 discriminator 1
 1363 002e B4F81880 		ldrh	r8, [r4, #24]
 1364              		.loc 1 503 0 discriminator 1
 1365 0032 A08A     		ldrh	r0, [r4, #20]
 1366 0034 2789     		ldrh	r7, [r4, #8]
 1367              		.loc 1 502 0 discriminator 1
 1368 0036 5144     		add	r1, r1, r10
ARM GAS  /tmp/cc5R02t1.s 			page 25


 1369              		.loc 1 504 0 discriminator 1
 1370 0038 B4F822A0 		ldrh	r10, [r4, #34]
 1371 003c 4B44     		add	r3, r3, r9
 1372              		.loc 1 499 0 discriminator 1
 1373 003e 6244     		add	r2, r2, ip
 1374              	.LVL170:
 1375              		.loc 1 500 0 discriminator 1
 1376 0040 B4F81AC0 		ldrh	ip, [r4, #26]
 1377              	.LVL171:
 1378 0044 B4F82690 		ldrh	r9, [r4, #38]
 1379 0048 5E44     		add	r6, r6, fp
 1380              		.loc 1 501 0 discriminator 1
 1381 004a 7544     		add	r5, r5, lr
 1382              		.loc 1 504 0 discriminator 1
 1383 004c 9A44     		add	r10, r10, r3
 1384              		.loc 1 501 0 discriminator 1
 1385 004e B4F81CE0 		ldrh	lr, [r4, #28]
 1386              		.loc 1 506 0 discriminator 1
 1387 0052 454B     		ldr	r3, .L168+12
 1388              		.loc 1 502 0 discriminator 1
 1389 0054 B4F81EB0 		ldrh	fp, [r4, #30]
 1390              		.loc 1 503 0 discriminator 1
 1391 0058 0744     		add	r7, r7, r0
 1392              		.loc 1 499 0 discriminator 1
 1393 005a 4244     		add	r2, r2, r8
 1394              		.loc 1 503 0 discriminator 1
 1395 005c 208C     		ldrh	r0, [r4, #32]
 1396              		.loc 1 499 0 discriminator 1
 1397 005e B4F82480 		ldrh	r8, [r4, #36]
 1398              		.loc 1 500 0 discriminator 1
 1399 0062 6644     		add	r6, r6, ip
 1400              		.loc 1 501 0 discriminator 1
 1401 0064 7544     		add	r5, r5, lr
 1402              		.loc 1 502 0 discriminator 1
 1403 0066 B4F82AC0 		ldrh	ip, [r4, #42]
 1404              		.loc 1 503 0 discriminator 1
 1405 006a B4F82CE0 		ldrh	lr, [r4, #44]
 1406              		.loc 1 500 0 discriminator 1
 1407 006e 4E44     		add	r6, r6, r9
 1408              		.loc 1 506 0 discriminator 1
 1409 0070 D3F81090 		ldr	r9, [r3, #16]
 1410              		.loc 1 507 0 discriminator 1
 1411 0074 1B69     		ldr	r3, [r3, #16]
 1412 0076 0193     		str	r3, [sp, #4]
 1413              		.loc 1 502 0 discriminator 1
 1414 0078 5944     		add	r1, r1, fp
 1415              		.loc 1 508 0 discriminator 1
 1416 007a 3B4B     		ldr	r3, .L168+12
 1417              		.loc 1 504 0 discriminator 1
 1418 007c B4F82EB0 		ldrh	fp, [r4, #46]
 1419              		.loc 1 503 0 discriminator 1
 1420 0080 3844     		add	r0, r0, r7
 1421              		.loc 1 499 0 discriminator 1
 1422 0082 4244     		add	r2, r2, r8
 1423              		.loc 1 501 0 discriminator 1
 1424 0084 B4F82880 		ldrh	r8, [r4, #40]
 1425              		.loc 1 508 0 discriminator 1
ARM GAS  /tmp/cc5R02t1.s 			page 26


 1426 0088 1F69     		ldr	r7, [r3, #16]
 1427              		.loc 1 502 0 discriminator 1
 1428 008a 8C44     		add	ip, ip, r1
 1429              		.loc 1 503 0 discriminator 1
 1430 008c 8644     		add	lr, lr, r0
 1431              		.loc 1 516 0 discriminator 1
 1432 008e 9208     		lsrs	r2, r2, #2
 1433 0090 02A8     		add	r0, sp, #8
 1434 0092 3649     		ldr	r1, .L168+16
 1435              		.loc 1 501 0 discriminator 1
 1436 0094 4544     		add	r5, r5, r8
 1437              		.loc 1 504 0 discriminator 1
 1438 0096 DA44     		add	r10, r10, fp
 1439              		.loc 1 503 0 discriminator 1
 1440 0098 4FEA9E08 		lsr	r8, lr, #2
 1441              		.loc 1 502 0 discriminator 1
 1442 009c 4FEA9C0B 		lsr	fp, ip, #2
 1443              		.loc 1 516 0 discriminator 1
 1444 00a0 FFF7FEFF 		bl	sprintf
 1445              	.LVL172:
 1446              		.loc 1 500 0 discriminator 1
 1447 00a4 B608     		lsrs	r6, r6, #2
 1448              	.LVL173:
 1449              		.loc 1 516 0 discriminator 1
 1450 00a6 0146     		mov	r1, r0
 1451              		.loc 1 517 0 discriminator 1
 1452 00a8 02A8     		add	r0, sp, #8
 1453 00aa FFF7FEFF 		bl	writeAnalog
 1454              	.LVL174:
 1455              		.loc 1 519 0 discriminator 1
 1456 00ae 3246     		mov	r2, r6
 1457 00b0 02A8     		add	r0, sp, #8
 1458 00b2 2F49     		ldr	r1, .L168+20
 1459 00b4 FFF7FEFF 		bl	sprintf
 1460              	.LVL175:
 1461              		.loc 1 501 0 discriminator 1
 1462 00b8 AD08     		lsrs	r5, r5, #2
 1463              	.LVL176:
 1464              		.loc 1 519 0 discriminator 1
 1465 00ba 0146     		mov	r1, r0
 1466              		.loc 1 520 0 discriminator 1
 1467 00bc 02A8     		add	r0, sp, #8
 1468 00be FFF7FEFF 		bl	writeAnalog
 1469              	.LVL177:
 1470              		.loc 1 522 0 discriminator 1
 1471 00c2 2A46     		mov	r2, r5
 1472 00c4 02A8     		add	r0, sp, #8
 1473 00c6 2B49     		ldr	r1, .L168+24
 1474 00c8 FFF7FEFF 		bl	sprintf
 1475              	.LVL178:
 1476 00cc 0146     		mov	r1, r0
 1477              		.loc 1 523 0 discriminator 1
 1478 00ce 02A8     		add	r0, sp, #8
 1479 00d0 FFF7FEFF 		bl	writeAnalog
 1480              	.LVL179:
 1481              		.loc 1 525 0 discriminator 1
 1482 00d4 5A46     		mov	r2, fp
ARM GAS  /tmp/cc5R02t1.s 			page 27


 1483 00d6 02A8     		add	r0, sp, #8
 1484 00d8 2749     		ldr	r1, .L168+28
 1485 00da FFF7FEFF 		bl	sprintf
 1486              	.LVL180:
 1487 00de 0146     		mov	r1, r0
 1488              		.loc 1 526 0 discriminator 1
 1489 00e0 02A8     		add	r0, sp, #8
 1490 00e2 FFF7FEFF 		bl	writeAnalog
 1491              	.LVL181:
 1492              		.loc 1 528 0 discriminator 1
 1493 00e6 4246     		mov	r2, r8
 1494 00e8 02A8     		add	r0, sp, #8
 1495 00ea 2449     		ldr	r1, .L168+32
 1496 00ec FFF7FEFF 		bl	sprintf
 1497              	.LVL182:
 1498              		.loc 1 504 0 discriminator 1
 1499 00f0 4FEA9A0A 		lsr	r10, r10, #2
 1500              	.LVL183:
 1501              		.loc 1 528 0 discriminator 1
 1502 00f4 0146     		mov	r1, r0
 1503              	.LVL184:
 1504              		.loc 1 529 0 discriminator 1
 1505 00f6 02A8     		add	r0, sp, #8
 1506              	.LVL185:
 1507 00f8 FFF7FEFF 		bl	writeAnalog
 1508              	.LVL186:
 1509              		.loc 1 531 0 discriminator 1
 1510 00fc 5246     		mov	r2, r10
 1511 00fe 02A8     		add	r0, sp, #8
 1512 0100 1F49     		ldr	r1, .L168+36
 1513 0102 FFF7FEFF 		bl	sprintf
 1514              	.LVL187:
 1515 0106 0146     		mov	r1, r0
 1516              	.LVL188:
 1517              		.loc 1 532 0 discriminator 1
 1518 0108 02A8     		add	r0, sp, #8
 1519              	.LVL189:
 1520 010a FFF7FEFF 		bl	writeAnalog
 1521              	.LVL190:
 1522              		.loc 1 534 0 discriminator 1
 1523 010e C9F34032 		ubfx	r2, r9, #13, #1
 1524 0112 02A8     		add	r0, sp, #8
 1525 0114 1B49     		ldr	r1, .L168+40
 1526 0116 FFF7FEFF 		bl	sprintf
 1527              	.LVL191:
 1528 011a 0146     		mov	r1, r0
 1529              	.LVL192:
 1530              		.loc 1 535 0 discriminator 1
 1531 011c 02A8     		add	r0, sp, #8
 1532              	.LVL193:
 1533 011e FFF7FEFF 		bl	writeAnalog
 1534              	.LVL194:
 1535              		.loc 1 537 0 discriminator 1
 1536 0122 019B     		ldr	r3, [sp, #4]
 1537 0124 1849     		ldr	r1, .L168+44
 1538 0126 C3F38032 		ubfx	r2, r3, #14, #1
 1539 012a 02A8     		add	r0, sp, #8
ARM GAS  /tmp/cc5R02t1.s 			page 28


 1540 012c FFF7FEFF 		bl	sprintf
 1541              	.LVL195:
 1542 0130 0146     		mov	r1, r0
 1543              	.LVL196:
 1544              		.loc 1 538 0 discriminator 1
 1545 0132 02A8     		add	r0, sp, #8
 1546              	.LVL197:
 1547 0134 FFF7FEFF 		bl	writeAnalog
 1548              	.LVL198:
 1549              		.loc 1 540 0 discriminator 1
 1550 0138 C7F3C032 		ubfx	r2, r7, #15, #1
 1551 013c 02A8     		add	r0, sp, #8
 1552 013e 1349     		ldr	r1, .L168+48
 1553 0140 FFF7FEFF 		bl	sprintf
 1554              	.LVL199:
 1555 0144 0146     		mov	r1, r0
 1556              	.LVL200:
 1557              		.loc 1 541 0 discriminator 1
 1558 0146 02A8     		add	r0, sp, #8
 1559              	.LVL201:
 1560 0148 FFF7FEFF 		bl	writeAnalog
 1561              	.LVL202:
 1562              		.loc 1 542 0 discriminator 1
 1563 014c 0120     		movs	r0, #1
 1564 014e FFF7FEFF 		bl	chThdSleep
 1565              	.LVL203:
 1566              		.loc 1 555 0 discriminator 1
 1567 0152 0520     		movs	r0, #5
 1568 0154 FFF7FEFF 		bl	chThdSleep
 1569              	.LVL204:
 1570              	.LBE27:
 1571              		.loc 1 556 0 discriminator 1
 1572 0158 5AE7     		b	.L166
 1573              	.L169:
 1574 015a 00BF     		.align	2
 1575              	.L168:
 1576 015c 00000000 		.word	rlist
 1577 0160 F4000000 		.word	.LC21
 1578 0164 00000000 		.word	.LANCHOR1
 1579 0168 00080240 		.word	1073874944
 1580 016c 04010000 		.word	.LC22
 1581 0170 18010000 		.word	.LC23
 1582 0174 30010000 		.word	.LC24
 1583 0178 48010000 		.word	.LC25
 1584 017c 60010000 		.word	.LC26
 1585 0180 78010000 		.word	.LC27
 1586 0184 8C010000 		.word	.LC28
 1587 0188 9C010000 		.word	.LC29
 1588 018c B8010000 		.word	.LC30
 1589              		.cfi_endproc
 1590              	.LFE130:
 1591              		.size	writeThread, .-writeThread
 1592              		.section	.text.startup.main,"ax",%progbits
 1593              		.align	2
 1594              		.p2align 4,,15
 1595              		.global	main
 1596              		.thumb
ARM GAS  /tmp/cc5R02t1.s 			page 29


 1597              		.thumb_func
 1598              		.type	main, %function
 1599              	main:
 1600              	.LFB132:
 1601              		.loc 1 571 0
 1602              		.cfi_startproc
 1603              		@ args = 0, pretend = 0, frame = 0
 1604              		@ frame_needed = 0, uses_anonymous_args = 0
 1605              	.LVL205:
 1606 0000 10B5     		push	{r4, lr}
 1607              		.cfi_def_cfa_offset 8
 1608              		.cfi_offset 4, -8
 1609              		.cfi_offset 14, -4
 1610 0002 82B0     		sub	sp, sp, #8
 1611              		.cfi_def_cfa_offset 16
 1612              		.loc 1 574 0
 1613 0004 FFF7FEFF 		bl	halInit
 1614              	.LVL206:
 1615              		.loc 1 575 0
 1616 0008 FFF7FEFF 		bl	chSysInit
 1617              	.LVL207:
 1618              		.loc 1 577 0
 1619 000c FFF7FEFF 		bl	initializeUSB
 1620              	.LVL208:
 1621              		.loc 1 582 0
 1622 0010 4348     		ldr	r0, .L173
 1623 0012 0121     		movs	r1, #1
 1624 0014 0322     		movs	r2, #3
 1625 0016 FFF7FEFF 		bl	_pal_lld_setgroupmode
 1626              	.LVL209:
 1627              		.loc 1 583 0
 1628 001a 4148     		ldr	r0, .L173
 1629 001c 0221     		movs	r1, #2
 1630 001e 0322     		movs	r2, #3
 1631 0020 FFF7FEFF 		bl	_pal_lld_setgroupmode
 1632              	.LVL210:
 1633              		.loc 1 584 0
 1634 0024 3E48     		ldr	r0, .L173
 1635 0026 0421     		movs	r1, #4
 1636 0028 0322     		movs	r2, #3
 1637 002a FFF7FEFF 		bl	_pal_lld_setgroupmode
 1638              	.LVL211:
 1639              		.loc 1 585 0
 1640 002e 3C48     		ldr	r0, .L173
 1641 0030 0821     		movs	r1, #8
 1642 0032 0322     		movs	r2, #3
 1643 0034 FFF7FEFF 		bl	_pal_lld_setgroupmode
 1644              	.LVL212:
 1645              		.loc 1 586 0
 1646 0038 3948     		ldr	r0, .L173
 1647 003a 1021     		movs	r1, #16
 1648 003c 0322     		movs	r2, #3
 1649 003e FFF7FEFF 		bl	_pal_lld_setgroupmode
 1650              	.LVL213:
 1651              		.loc 1 587 0
 1652 0042 0322     		movs	r2, #3
 1653 0044 3648     		ldr	r0, .L173
ARM GAS  /tmp/cc5R02t1.s 			page 30


 1654 0046 2021     		movs	r1, #32
 1655 0048 FFF7FEFF 		bl	_pal_lld_setgroupmode
 1656              	.LVL214:
 1657              		.loc 1 588 0
 1658 004c 3548     		ldr	r0, .L173+4
 1659 004e 0021     		movs	r1, #0
 1660 0050 FFF7FEFF 		bl	adcStart
 1661              	.LVL215:
 1662              		.loc 1 593 0
 1663 0054 3448     		ldr	r0, .L173+8
 1664 0056 3549     		ldr	r1, .L173+12
 1665 0058 FFF7FEFF 		bl	pwmStart
 1666              	.LVL216:
 1667              		.loc 1 594 0
 1668 005c 3448     		ldr	r0, .L173+16
 1669 005e 3349     		ldr	r1, .L173+12
 1670 0060 FFF7FEFF 		bl	pwmStart
 1671              	.LVL217:
 1672              		.loc 1 596 0
 1673 0064 3348     		ldr	r0, .L173+20
 1674 0066 2021     		movs	r1, #32
 1675 0068 4FF48172 		mov	r2, #258
 1676 006c FFF7FEFF 		bl	_pal_lld_setgroupmode
 1677              	.LVL218:
 1678              		.loc 1 597 0
 1679 0070 3048     		ldr	r0, .L173+20
 1680 0072 4021     		movs	r1, #64
 1681 0074 4FF48172 		mov	r2, #258
 1682 0078 FFF7FEFF 		bl	_pal_lld_setgroupmode
 1683              	.LVL219:
 1684              		.loc 1 598 0
 1685 007c 2D48     		ldr	r0, .L173+20
 1686 007e 8021     		movs	r1, #128
 1687 0080 4FF48172 		mov	r2, #258
 1688 0084 FFF7FEFF 		bl	_pal_lld_setgroupmode
 1689              	.LVL220:
 1690              		.loc 1 599 0
 1691 0088 2A48     		ldr	r0, .L173+20
 1692 008a 4FF48071 		mov	r1, #256
 1693 008e 4FF48172 		mov	r2, #258
 1694 0092 FFF7FEFF 		bl	_pal_lld_setgroupmode
 1695              	.LVL221:
 1696              		.loc 1 600 0
 1697 0096 2748     		ldr	r0, .L173+20
 1698 0098 4FF40071 		mov	r1, #512
 1699 009c 4FF48172 		mov	r2, #258
 1700 00a0 FFF7FEFF 		bl	_pal_lld_setgroupmode
 1701              	.LVL222:
 1702              		.loc 1 602 0
 1703 00a4 2248     		ldr	r0, .L173+16
 1704 00a6 0121     		movs	r1, #1
 1705 00a8 0022     		movs	r2, #0
 1706 00aa FFF7FEFF 		bl	pwmEnableChannel
 1707              	.LVL223:
 1708              		.loc 1 603 0
 1709 00ae 0021     		movs	r1, #0
 1710 00b0 0A46     		mov	r2, r1
ARM GAS  /tmp/cc5R02t1.s 			page 31


 1711 00b2 1D48     		ldr	r0, .L173+8
 1712 00b4 FFF7FEFF 		bl	pwmEnableChannel
 1713              	.LVL224:
 1714              		.loc 1 604 0
 1715 00b8 1B48     		ldr	r0, .L173+8
 1716 00ba 0121     		movs	r1, #1
 1717 00bc 0022     		movs	r2, #0
 1718 00be FFF7FEFF 		bl	pwmEnableChannel
 1719              	.LVL225:
 1720              		.loc 1 609 0
 1721 00c2 0024     		movs	r4, #0
 1722              		.loc 1 605 0
 1723 00c4 1848     		ldr	r0, .L173+8
 1724 00c6 0221     		movs	r1, #2
 1725 00c8 0022     		movs	r2, #0
 1726 00ca FFF7FEFF 		bl	pwmEnableChannel
 1727              	.LVL226:
 1728              		.loc 1 606 0
 1729 00ce 1648     		ldr	r0, .L173+8
 1730 00d0 0321     		movs	r1, #3
 1731 00d2 2246     		mov	r2, r4
 1732 00d4 FFF7FEFF 		bl	pwmEnableChannel
 1733              	.LVL227:
 1734              		.loc 1 609 0
 1735 00d8 174B     		ldr	r3, .L173+24
 1736 00da 0094     		str	r4, [sp]
 1737 00dc 4FF4A871 		mov	r1, #336
 1738 00e0 0222     		movs	r2, #2
 1739 00e2 1648     		ldr	r0, .L173+28
 1740 00e4 FFF7FEFF 		bl	chThdCreateStatic
 1741              	.LVL228:
 1742              		.loc 1 611 0
 1743 00e8 154B     		ldr	r3, .L173+32
 1744 00ea 0094     		str	r4, [sp]
 1745 00ec 4FF49A61 		mov	r1, #1232
 1746 00f0 7F22     		movs	r2, #127
 1747 00f2 1448     		ldr	r0, .L173+36
 1748 00f4 FFF7FEFF 		bl	chThdCreateStatic
 1749              	.LVL229:
 1750              		.loc 1 613 0
 1751 00f8 134B     		ldr	r3, .L173+40
 1752 00fa 0094     		str	r4, [sp]
 1753 00fc 4FF49A61 		mov	r1, #1232
 1754 0100 4022     		movs	r2, #64
 1755 0102 1248     		ldr	r0, .L173+44
 1756 0104 FFF7FEFF 		bl	chThdCreateStatic
 1757              	.LVL230:
 1758              		.loc 1 615 0
 1759 0108 0094     		str	r4, [sp]
 1760 010a 1148     		ldr	r0, .L173+48
 1761 010c 114B     		ldr	r3, .L173+52
 1762 010e 4FF48871 		mov	r1, #272
 1763 0112 0222     		movs	r2, #2
 1764 0114 FFF7FEFF 		bl	chThdCreateStatic
 1765              	.LVL231:
 1766              	.L171:
 1767              		.loc 1 621 0 discriminator 1
ARM GAS  /tmp/cc5R02t1.s 			page 32


 1768 0118 0A20     		movs	r0, #10
 1769 011a FFF7FEFF 		bl	chThdSleep
 1770              	.LVL232:
 1771              		.loc 1 623 0 discriminator 1
 1772 011e FBE7     		b	.L171
 1773              	.L174:
 1774              		.align	2
 1775              	.L173:
 1776 0120 00080240 		.word	1073874944
 1777 0124 00000000 		.word	ADCD1
 1778 0128 00000000 		.word	PWMD4
 1779 012c 00000000 		.word	.LANCHOR9
 1780 0130 00000000 		.word	PWMD3
 1781 0134 00040240 		.word	1073873920
 1782 0138 00000000 		.word	usbThread
 1783 013c 00000000 		.word	.LANCHOR10
 1784 0140 00000000 		.word	readThread
 1785 0144 00000000 		.word	.LANCHOR11
 1786 0148 00000000 		.word	writeThread
 1787 014c 00000000 		.word	.LANCHOR12
 1788 0150 00000000 		.word	.LANCHOR13
 1789 0154 00000000 		.word	adcSampleThread
 1790              		.cfi_endproc
 1791              	.LFE132:
 1792              		.size	main, .-main
 1793              		.global	decodedValue
 1794              		.global	messageBuffer
 1795              		.global	timeOut
 1796              		.global	chunkBuffer
 1797              		.global	receiveBuffer
 1798              		.global	bytesRead
 1799              		.global	writePtr
 1800              		.section	.bss.chunkBuffer,"aw",%nobits
 1801              		.align	2
 1802              		.set	.LANCHOR6,. + 0
 1803              		.type	chunkBuffer, %object
 1804              		.size	chunkBuffer, 64
 1805              	chunkBuffer:
 1806 0000 00000000 		.space	64
 1806      00000000 
 1806      00000000 
 1806      00000000 
 1806      00000000 
 1807              		.section	.bss.writePtr,"aw",%nobits
 1808              		.align	2
 1809              		.set	.LANCHOR4,. + 0
 1810              		.type	writePtr, %object
 1811              		.size	writePtr, 4
 1812              	writePtr:
 1813 0000 00000000 		.space	4
 1814              		.section	.bss.readThreadWA,"aw",%nobits
 1815              		.align	3
 1816              		.set	.LANCHOR11,. + 0
 1817              		.type	readThreadWA, %object
 1818              		.size	readThreadWA, 1232
 1819              	readThreadWA:
 1820 0000 00000000 		.space	1232
ARM GAS  /tmp/cc5R02t1.s 			page 33


 1820      00000000 
 1820      00000000 
 1820      00000000 
 1820      00000000 
 1821              		.section	.bss.bytesRead,"aw",%nobits
 1822              		.align	2
 1823              		.set	.LANCHOR8,. + 0
 1824              		.type	bytesRead, %object
 1825              		.size	bytesRead, 4
 1826              	bytesRead:
 1827 0000 00000000 		.space	4
 1828              		.section	.data.timeOut,"aw",%progbits
 1829              		.align	2
 1830              		.set	.LANCHOR7,. + 0
 1831              		.type	timeOut, %object
 1832              		.size	timeOut, 4
 1833              	timeOut:
 1834 0000 0A000000 		.word	10
 1835              		.section	.bss.messageBuffer,"aw",%nobits
 1836              		.align	2
 1837              		.set	.LANCHOR5,. + 0
 1838              		.type	messageBuffer, %object
 1839              		.size	messageBuffer, 256
 1840              	messageBuffer:
 1841 0000 00000000 		.space	256
 1841      00000000 
 1841      00000000 
 1841      00000000 
 1841      00000000 
 1842              		.section	.bss.decodedValue,"aw",%nobits
 1843              		.align	2
 1844              		.set	.LANCHOR2,. + 0
 1845              		.type	decodedValue, %object
 1846              		.size	decodedValue, 4
 1847              	decodedValue:
 1848 0000 00000000 		.space	4
 1849              		.section	.data.pwmcfg,"aw",%progbits
 1850              		.align	2
 1851              		.set	.LANCHOR9,. + 0
 1852              		.type	pwmcfg, %object
 1853              		.size	pwmcfg, 52
 1854              	pwmcfg:
 1855 0000 A0860100 		.word	100000
 1856 0004 0A00     		.short	10
 1857 0006 0000     		.space	2
 1858 0008 00000000 		.word	0
 1859 000c 01000000 		.word	1
 1860 0010 00000000 		.word	0
 1861 0014 01000000 		.word	1
 1862 0018 00000000 		.word	0
 1863 001c 01000000 		.word	1
 1864 0020 00000000 		.word	0
 1865 0024 01000000 		.word	1
 1866 0028 00000000 		.word	0
 1867 002c 00000000 		.word	0
 1868 0030 00000000 		.word	0
 1869              		.section	.bss.usbThreadWA,"aw",%nobits
ARM GAS  /tmp/cc5R02t1.s 			page 34


 1870              		.align	3
 1871              		.set	.LANCHOR10,. + 0
 1872              		.type	usbThreadWA, %object
 1873              		.size	usbThreadWA, 336
 1874              	usbThreadWA:
 1875 0000 00000000 		.space	336
 1875      00000000 
 1875      00000000 
 1875      00000000 
 1875      00000000 
 1876              		.section	.rodata.str1.4,"aMS",%progbits,1
 1877              		.align	2
 1878              	.LC0:
 1879 0000 53616D70 		.ascii	"Sample ADC\000"
 1879      6C652041 
 1879      444300
 1880 000b 00       		.space	1
 1881              	.LC1:
 1882 000c 75736200 		.ascii	"usb\000"
 1883              	.LC2:
 1884 0010 68656172 		.ascii	"heart_beat\000"
 1884      745F6265 
 1884      617400
 1885 001b 00       		.space	1
 1886              	.LC3:
 1887 001c 7261636B 		.ascii	"rack_right\000"
 1887      5F726967 
 1887      687400
 1888 0027 00       		.space	1
 1889              	.LC4:
 1890 0028 7261636B 		.ascii	"rack_left\000"
 1890      5F6C6566 
 1890      7400
 1891 0032 0000     		.space	2
 1892              	.LC5:
 1893 0034 73657276 		.ascii	"service_break\000"
 1893      6963655F 
 1893      62726561 
 1893      6B00
 1894 0042 0000     		.space	2
 1895              	.LC6:
 1896 0044 72656475 		.ascii	"redundency\000"
 1896      6E64656E 
 1896      637900
 1897 004f 00       		.space	1
 1898              	.LC7:
 1899 0050 73687574 		.ascii	"shutdown\000"
 1899      646F776E 
 1899      00
 1900 0059 000000   		.space	3
 1901              	.LC8:
 1902 005c 73706172 		.ascii	"spare\000"
 1902      6500
 1903 0062 0000     		.space	2
 1904              	.LC9:
 1905 0064 636C616D 		.ascii	"clamp_set\000"
 1905      705F7365 
ARM GAS  /tmp/cc5R02t1.s 			page 35


 1905      7400
 1906 006e 0000     		.space	2
 1907              	.LC10:
 1908 0070 636F6D70 		.ascii	"compressor\000"
 1908      72657373 
 1908      6F7200
 1909 007b 00       		.space	1
 1910              	.LC11:
 1911 007c 6562735F 		.ascii	"ebs_relief\000"
 1911      72656C69 
 1911      656600
 1912 0087 00       		.space	1
 1913              	.LC12:
 1914 0088 6562735F 		.ascii	"ebs_speaker\000"
 1914      73706561 
 1914      6B657200 
 1915              	.LC13:
 1916 0094 66696E69 		.ascii	"finished\000"
 1916      73686564 
 1916      00
 1917 009d 000000   		.space	3
 1918              	.LC14:
 1919 00a0 73746565 		.ascii	"steer_speed\000"
 1919      725F7370 
 1919      65656400 
 1920              	.LC15:
 1921 00ac 6272616B 		.ascii	"brake_pressure\000"
 1921      655F7072 
 1921      65737375 
 1921      726500
 1922 00bb 00       		.space	1
 1923              	.LC16:
 1924 00bc 61737369 		.ascii	"assi_blue\000"
 1924      5F626C75 
 1924      6500
 1925 00c6 0000     		.space	2
 1926              	.LC17:
 1927 00c8 61737369 		.ascii	"assi_red\000"
 1927      5F726564 
 1927      00
 1928 00d1 000000   		.space	3
 1929              	.LC18:
 1930 00d4 61737369 		.ascii	"assi_green\000"
 1930      5F677265 
 1930      656E00
 1931 00df 00       		.space	1
 1932              	.LC19:
 1933 00e0 72656164 		.ascii	"read thread\000"
 1933      20746872 
 1933      65616400 
 1934              	.LC20:
 1935 00ec 2025643A 		.ascii	" %d:%s;\000"
 1935      25733B00 
 1936              	.LC21:
 1937 00f4 77726974 		.ascii	"write thread\000"
 1937      65207468 
 1937      72656164 
ARM GAS  /tmp/cc5R02t1.s 			page 36


 1937      00
 1938 0101 000000   		.space	3
 1939              	.LC22:
 1940 0104 73746174 		.ascii	"status|ebs_line|%d\000"
 1940      75737C65 
 1940      62735F6C 
 1940      696E657C 
 1940      256400
 1941 0117 00       		.space	1
 1942              	.LC23:
 1943 0118 73746174 		.ascii	"status|ebs_actuator|%d\000"
 1943      75737C65 
 1943      62735F61 
 1943      63747561 
 1943      746F727C 
 1944 012f 00       		.space	1
 1945              	.LC24:
 1946 0130 73746174 		.ascii	"status|pressure_rag|%d\000"
 1946      75737C70 
 1946      72657373 
 1946      7572655F 
 1946      7261677C 
 1947 0147 00       		.space	1
 1948              	.LC25:
 1949 0148 73746174 		.ascii	"status|service_tank|%d\000"
 1949      75737C73 
 1949      65727669 
 1949      63655F74 
 1949      616E6B7C 
 1950 015f 00       		.space	1
 1951              	.LC26:
 1952 0160 73746174 		.ascii	"status|position_rack|%d\000"
 1952      75737C70 
 1952      6F736974 
 1952      696F6E5F 
 1952      7261636B 
 1953              	.LC27:
 1954 0178 73746174 		.ascii	"status|steer_pos|%d\000"
 1954      75737C73 
 1954      74656572 
 1954      5F706F73 
 1954      7C256400 
 1955              	.LC28:
 1956 018c 73746174 		.ascii	"status|asms|%d\000"
 1956      75737C61 
 1956      736D737C 
 1956      256400
 1957 019b 00       		.space	1
 1958              	.LC29:
 1959 019c 73746174 		.ascii	"status|clamped_sensor|%d\000"
 1959      75737C63 
 1959      6C616D70 
 1959      65645F73 
 1959      656E736F 
 1960 01b5 000000   		.space	3
 1961              	.LC30:
 1962 01b8 73746174 		.ascii	"status|ebs_ok|%d\000"
ARM GAS  /tmp/cc5R02t1.s 			page 37


 1962      75737C65 
 1962      62735F6F 
 1962      6B7C2564 
 1962      00
 1963              		.section	.bss.receiveBuffer,"aw",%nobits
 1964              		.align	2
 1965              		.set	.LANCHOR3,. + 0
 1966              		.type	receiveBuffer, %object
 1967              		.size	receiveBuffer, 128
 1968              	receiveBuffer:
 1969 0000 00000000 		.space	128
 1969      00000000 
 1969      00000000 
 1969      00000000 
 1969      00000000 
 1970              		.section	.rodata.adcgrpcfg,"a",%progbits
 1971              		.align	2
 1972              		.set	.LANCHOR0,. + 0
 1973              		.type	adcgrpcfg, %object
 1974              		.size	adcgrpcfg, 40
 1975              	adcgrpcfg:
 1976 0000 00       		.byte	0
 1977 0001 00       		.space	1
 1978 0002 0600     		.short	6
 1979 0004 00000000 		.word	0
 1980 0008 00000000 		.word	0
 1981 000c 00000000 		.word	0
 1982 0010 00000040 		.word	1073741824
 1983 0014 00000000 		.word	0
 1984 0018 00000000 		.word	0
 1985 001c 00005000 		.word	5242880
 1986 0020 00000000 		.word	0
 1987 0024 6AB1E61E 		.word	518435178
 1988              		.section	.bss.samples,"aw",%nobits
 1989              		.align	2
 1990              		.set	.LANCHOR1,. + 0
 1991              		.type	samples, %object
 1992              		.size	samples, 48
 1993              	samples:
 1994 0000 00000000 		.space	48
 1994      00000000 
 1994      00000000 
 1994      00000000 
 1994      00000000 
 1995              		.section	.bss.writeThreadArea,"aw",%nobits
 1996              		.align	3
 1997              		.set	.LANCHOR12,. + 0
 1998              		.type	writeThreadArea, %object
 1999              		.size	writeThreadArea, 1232
 2000              	writeThreadArea:
 2001 0000 00000000 		.space	1232
 2001      00000000 
 2001      00000000 
 2001      00000000 
 2001      00000000 
 2002              		.section	.bss.adcSampleThreadWA,"aw",%nobits
 2003              		.align	3
ARM GAS  /tmp/cc5R02t1.s 			page 38


 2004              		.set	.LANCHOR13,. + 0
 2005              		.type	adcSampleThreadWA, %object
 2006              		.size	adcSampleThreadWA, 272
 2007              	adcSampleThreadWA:
 2008 0000 00000000 		.space	272
 2008      00000000 
 2008      00000000 
 2008      00000000 
 2008      00000000 
 2009              		.text
 2010              	.Letext0:
 2011              		.file 2 "/usr/include/newlib/machine/_default_types.h"
 2012              		.file 3 "/usr/lib/gcc/arm-none-eabi/4.9.3/include/stddef.h"
 2013              		.file 4 "/usr/include/newlib/sys/_stdint.h"
 2014              		.file 5 "ChibiOS_2.6.5/os/ports/GCC/ARMCMx/chtypes.h"
 2015              		.file 6 "ChibiOS_2.6.5/os/kernel/include/chlists.h"
 2016              		.file 7 "ChibiOS_2.6.5/os/kernel/include/chthreads.h"
 2017              		.file 8 "ChibiOS_2.6.5/os/ports/GCC/ARMCMx/chcore_v7m.h"
 2018              		.file 9 "ChibiOS_2.6.5/os/kernel/include/chschd.h"
 2019              		.file 10 "ChibiOS_2.6.5/os/kernel/include/chmtx.h"
 2020              		.file 11 "ChibiOS_2.6.5/os/kernel/include/chevents.h"
 2021              		.file 12 "ChibiOS_2.6.5/os/kernel/include/chqueues.h"
 2022              		.file 13 "ChibiOS_2.6.5/os/hal/platforms/STM32F4xx/stm32f4xx.h"
 2023              		.file 14 "ChibiOS_2.6.5/os/hal/platforms/STM32F4xx/stm32_dma.h"
 2024              		.file 15 "ChibiOS_2.6.5/os/hal/platforms/STM32/GPIOv2/pal_lld.h"
 2025              		.file 16 "ChibiOS_2.6.5/os/hal/include/adc.h"
 2026              		.file 17 "ChibiOS_2.6.5/os/hal/platforms/STM32F4xx/adc_lld.h"
 2027              		.file 18 "ChibiOS_2.6.5/os/hal/include/pwm.h"
 2028              		.file 19 "ChibiOS_2.6.5/os/hal/platforms/STM32/TIMv1/pwm_lld.h"
 2029              		.file 20 "ChibiOS_2.6.5/os/hal/platforms/STM32/TIMv1/stm32_tim.h"
 2030              		.file 21 "ChibiOS_2.6.5/os/hal/include/serial.h"
 2031              		.file 22 "ChibiOS_2.6.5/os/hal/include/usb.h"
 2032              		.file 23 "ChibiOS_2.6.5/os/hal/platforms/STM32/OTGv1/usb_lld.h"
 2033              		.file 24 "ChibiOS_2.6.5/os/hal/platforms/STM32/OTGv1/stm32_otg.h"
 2034              		.file 25 "ChibiOS_2.6.5/os/hal/include/serial_usb.h"
 2035              		.file 26 "<built-in>"
 2036              		.file 27 "ChibiOS_2.6.5/os/ports/common/ARMCMx/CMSIS/include/core_cm4.h"
 2037              		.file 28 "USB/USB.h"
 2038              		.file 29 "/usr/include/newlib/string.h"
 2039              		.file 30 "/usr/include/newlib/stdio.h"
 2040              		.file 31 "ChibiOS_2.6.5/os/hal/include/hal.h"
 2041              		.file 32 "ChibiOS_2.6.5/os/kernel/include/chsys.h"