ARM GAS  /tmp/ccLOk4hM.s 			page 1


   1              		.syntax unified
   2              		.cpu cortex-m4
   3              		.fpu softvfp
   4              		.eabi_attribute 20, 1
   5              		.eabi_attribute 21, 1
   6              		.eabi_attribute 23, 3
   7              		.eabi_attribute 24, 1
   8              		.eabi_attribute 25, 1
   9              		.eabi_attribute 26, 1
  10              		.eabi_attribute 30, 2
  11              		.eabi_attribute 34, 1
  12              		.eabi_attribute 18, 4
  13              		.thumb
  14              		.file	"pwm.c"
  15              		.text
  16              	.Ltext0:
  17              		.cfi_sections	.debug_frame
  18              		.section	.text.pwmInit,"ax",%progbits
  19              		.align	2
  20              		.p2align 4,,15
  21              		.global	pwmInit
  22              		.thumb
  23              		.thumb_func
  24              		.type	pwmInit, %function
  25              	pwmInit:
  26              	.LFB118:
  27              		.file 1 "ChibiOS_2.6.5/os/hal/src/pwm.c"
  28              		.loc 1 68 0
  29              		.cfi_startproc
  30              		@ args = 0, pretend = 0, frame = 0
  31              		@ frame_needed = 0, uses_anonymous_args = 0
  32              		@ link register save eliminated.
  33              		.loc 1 70 0
  34 0000 FFF7FEBF 		b	pwm_lld_init
  35              	.LVL0:
  36              		.cfi_endproc
  37              	.LFE118:
  38              		.size	pwmInit, .-pwmInit
  39              		.section	.text.pwmObjectInit,"ax",%progbits
  40              		.align	2
  41              		.p2align 4,,15
  42              		.global	pwmObjectInit
  43              		.thumb
  44              		.thumb_func
  45              		.type	pwmObjectInit, %function
  46              	pwmObjectInit:
  47              	.LFB119:
  48              		.loc 1 80 0
  49              		.cfi_startproc
  50              		@ args = 0, pretend = 0, frame = 0
  51              		@ frame_needed = 0, uses_anonymous_args = 0
  52              		@ link register save eliminated.
  53              	.LVL1:
  54              		.loc 1 82 0
  55 0000 0122     		movs	r2, #1
  56              		.loc 1 83 0
  57 0002 0023     		movs	r3, #0
ARM GAS  /tmp/ccLOk4hM.s 			page 2


  58              		.loc 1 82 0
  59 0004 0270     		strb	r2, [r0]
  60              		.loc 1 83 0
  61 0006 4360     		str	r3, [r0, #4]
  62 0008 7047     		bx	lr
  63              		.cfi_endproc
  64              	.LFE119:
  65              		.size	pwmObjectInit, .-pwmObjectInit
  66 000a 00BF     		.section	.text.pwmStart,"ax",%progbits
  67              		.align	2
  68              		.p2align 4,,15
  69              		.global	pwmStart
  70              		.thumb
  71              		.thumb_func
  72              		.type	pwmStart, %function
  73              	pwmStart:
  74              	.LFB120:
  75              		.loc 1 99 0
  76              		.cfi_startproc
  77              		@ args = 0, pretend = 0, frame = 0
  78              		@ frame_needed = 0, uses_anonymous_args = 0
  79              	.LVL2:
  80 0000 38B5     		push	{r3, r4, r5, lr}
  81              		.cfi_def_cfa_offset 16
  82              		.cfi_offset 3, -16
  83              		.cfi_offset 4, -12
  84              		.cfi_offset 5, -8
  85              		.cfi_offset 14, -4
  86              		.loc 1 99 0
  87 0002 0D46     		mov	r5, r1
  88              		.loc 1 101 0
  89 0004 0446     		mov	r4, r0
  90 0006 D0B1     		cbz	r0, .L4
  91              		.loc 1 101 0 is_stmt 0 discriminator 2
  92 0008 C9B1     		cbz	r1, .L4
  93              	.LVL3:
  94              	.L5:
  95              	.LBB2:
  96              		.loc 1 103 0 is_stmt 1
  97 000a 2023     		movs	r3, #32
  98              	@ 103 "ChibiOS_2.6.5/os/hal/src/pwm.c" 1
  99 000c 83F31188 		msr     BASEPRI, r3
 100              	@ 0 "" 2
 101              		.thumb
 102              	.LBE2:
 103 0010 FFF7FEFF 		bl	dbg_check_lock
 104              	.LVL4:
 105              		.loc 1 104 0
 106 0014 2378     		ldrb	r3, [r4]	@ zero_extendqisi2
 107 0016 013B     		subs	r3, r3, #1
 108 0018 012B     		cmp	r3, #1
 109 001a 02D9     		bls	.L6
 110              		.loc 1 104 0 is_stmt 0 discriminator 1
 111 001c 0A48     		ldr	r0, .L12
 112 001e FFF7FEFF 		bl	chDbgPanic
 113              	.LVL5:
 114              	.L6:
ARM GAS  /tmp/ccLOk4hM.s 			page 3


 115              		.loc 1 107 0 is_stmt 1
 116 0022 AB88     		ldrh	r3, [r5, #4]
 117 0024 2381     		strh	r3, [r4, #8]	@ movhi
 118              		.loc 1 108 0
 119 0026 2046     		mov	r0, r4
 120              		.loc 1 106 0
 121 0028 6560     		str	r5, [r4, #4]
 122              		.loc 1 108 0
 123 002a FFF7FEFF 		bl	pwm_lld_start
 124              	.LVL6:
 125              		.loc 1 109 0
 126 002e 0223     		movs	r3, #2
 127 0030 2370     		strb	r3, [r4]
 128              		.loc 1 110 0
 129 0032 FFF7FEFF 		bl	dbg_check_unlock
 130              	.LVL7:
 131              	.LBB3:
 132 0036 0023     		movs	r3, #0
 133              	@ 110 "ChibiOS_2.6.5/os/hal/src/pwm.c" 1
 134 0038 83F31188 		msr     BASEPRI, r3
 135              	@ 0 "" 2
 136              		.thumb
 137 003c 38BD     		pop	{r3, r4, r5, pc}
 138              	.LVL8:
 139              	.L4:
 140              	.LBE3:
 141              		.loc 1 101 0 discriminator 3
 142 003e 0348     		ldr	r0, .L12+4
 143              	.LVL9:
 144 0040 FFF7FEFF 		bl	chDbgPanic
 145              	.LVL10:
 146 0044 E1E7     		b	.L5
 147              	.L13:
 148 0046 00BF     		.align	2
 149              	.L12:
 150 0048 10000000 		.word	.LC1
 151 004c 00000000 		.word	.LC0
 152              		.cfi_endproc
 153              	.LFE120:
 154              		.size	pwmStart, .-pwmStart
 155              		.section	.text.pwmStop,"ax",%progbits
 156              		.align	2
 157              		.p2align 4,,15
 158              		.global	pwmStop
 159              		.thumb
 160              		.thumb_func
 161              		.type	pwmStop, %function
 162              	pwmStop:
 163              	.LFB121:
 164              		.loc 1 120 0
 165              		.cfi_startproc
 166              		@ args = 0, pretend = 0, frame = 0
 167              		@ frame_needed = 0, uses_anonymous_args = 0
 168              	.LVL11:
 169 0000 10B5     		push	{r4, lr}
 170              		.cfi_def_cfa_offset 8
 171              		.cfi_offset 4, -8
ARM GAS  /tmp/ccLOk4hM.s 			page 4


 172              		.cfi_offset 14, -4
 173              		.loc 1 122 0
 174 0002 0446     		mov	r4, r0
 175 0004 B0B1     		cbz	r0, .L18
 176              	.LVL12:
 177              	.L15:
 178              	.LBB4:
 179              		.loc 1 124 0
 180 0006 2023     		movs	r3, #32
 181              	@ 124 "ChibiOS_2.6.5/os/hal/src/pwm.c" 1
 182 0008 83F31188 		msr     BASEPRI, r3
 183              	@ 0 "" 2
 184              		.thumb
 185              	.LBE4:
 186 000c FFF7FEFF 		bl	dbg_check_lock
 187              	.LVL13:
 188              		.loc 1 125 0
 189 0010 2378     		ldrb	r3, [r4]	@ zero_extendqisi2
 190 0012 013B     		subs	r3, r3, #1
 191 0014 012B     		cmp	r3, #1
 192 0016 02D9     		bls	.L16
 193              		.loc 1 125 0 is_stmt 0 discriminator 1
 194 0018 0848     		ldr	r0, .L19
 195 001a FFF7FEFF 		bl	chDbgPanic
 196              	.LVL14:
 197              	.L16:
 198              		.loc 1 127 0 is_stmt 1
 199 001e 2046     		mov	r0, r4
 200 0020 FFF7FEFF 		bl	pwm_lld_stop
 201              	.LVL15:
 202              		.loc 1 128 0
 203 0024 0123     		movs	r3, #1
 204 0026 2370     		strb	r3, [r4]
 205              		.loc 1 129 0
 206 0028 FFF7FEFF 		bl	dbg_check_unlock
 207              	.LVL16:
 208              	.LBB5:
 209 002c 0023     		movs	r3, #0
 210              	@ 129 "ChibiOS_2.6.5/os/hal/src/pwm.c" 1
 211 002e 83F31188 		msr     BASEPRI, r3
 212              	@ 0 "" 2
 213              		.thumb
 214 0032 10BD     		pop	{r4, pc}
 215              	.LVL17:
 216              	.L18:
 217              	.LBE5:
 218              		.loc 1 122 0 discriminator 1
 219 0034 0248     		ldr	r0, .L19+4
 220              	.LVL18:
 221 0036 FFF7FEFF 		bl	chDbgPanic
 222              	.LVL19:
 223 003a E4E7     		b	.L15
 224              	.L20:
 225              		.align	2
 226              	.L19:
 227 003c 2C000000 		.word	.LC3
 228 0040 20000000 		.word	.LC2
ARM GAS  /tmp/ccLOk4hM.s 			page 5


 229              		.cfi_endproc
 230              	.LFE121:
 231              		.size	pwmStop, .-pwmStop
 232              		.section	.text.pwmChangePeriod,"ax",%progbits
 233              		.align	2
 234              		.p2align 4,,15
 235              		.global	pwmChangePeriod
 236              		.thumb
 237              		.thumb_func
 238              		.type	pwmChangePeriod, %function
 239              	pwmChangePeriod:
 240              	.LFB122:
 241              		.loc 1 147 0
 242              		.cfi_startproc
 243              		@ args = 0, pretend = 0, frame = 0
 244              		@ frame_needed = 0, uses_anonymous_args = 0
 245              	.LVL20:
 246 0000 38B5     		push	{r3, r4, r5, lr}
 247              		.cfi_def_cfa_offset 16
 248              		.cfi_offset 3, -16
 249              		.cfi_offset 4, -12
 250              		.cfi_offset 5, -8
 251              		.cfi_offset 14, -4
 252              		.loc 1 147 0
 253 0002 0D46     		mov	r5, r1
 254              		.loc 1 149 0
 255 0004 0446     		mov	r4, r0
 256 0006 A8B1     		cbz	r0, .L28
 257              	.LVL21:
 258              	.L22:
 259              	.LBB6:
 260              		.loc 1 151 0
 261 0008 2023     		movs	r3, #32
 262              	@ 151 "ChibiOS_2.6.5/os/hal/src/pwm.c" 1
 263 000a 83F31188 		msr     BASEPRI, r3
 264              	@ 0 "" 2
 265              		.thumb
 266              	.LBE6:
 267 000e FFF7FEFF 		bl	dbg_check_lock
 268              	.LVL22:
 269              		.loc 1 152 0
 270 0012 2378     		ldrb	r3, [r4]	@ zero_extendqisi2
 271 0014 022B     		cmp	r3, #2
 272 0016 02D0     		beq	.L23
 273              		.loc 1 152 0 is_stmt 0 discriminator 1
 274 0018 0848     		ldr	r0, .L29
 275 001a FFF7FEFF 		bl	chDbgPanic
 276              	.LVL23:
 277              	.L23:
 278              		.loc 1 154 0 is_stmt 1
 279 001e 2269     		ldr	r2, [r4, #16]
 280 0020 2581     		strh	r5, [r4, #8]	@ movhi
 281 0022 6B1E     		subs	r3, r5, #1
 282 0024 9BB2     		uxth	r3, r3
 283 0026 D362     		str	r3, [r2, #44]
 284              		.loc 1 155 0
 285 0028 FFF7FEFF 		bl	dbg_check_unlock
ARM GAS  /tmp/ccLOk4hM.s 			page 6


 286              	.LVL24:
 287              	.LBB7:
 288 002c 0023     		movs	r3, #0
 289              	@ 155 "ChibiOS_2.6.5/os/hal/src/pwm.c" 1
 290 002e 83F31188 		msr     BASEPRI, r3
 291              	@ 0 "" 2
 292              		.thumb
 293 0032 38BD     		pop	{r3, r4, r5, pc}
 294              	.LVL25:
 295              	.L28:
 296              	.LBE7:
 297              		.loc 1 149 0 discriminator 1
 298 0034 0248     		ldr	r0, .L29+4
 299              	.LVL26:
 300 0036 FFF7FEFF 		bl	chDbgPanic
 301              	.LVL27:
 302 003a E5E7     		b	.L22
 303              	.L30:
 304              		.align	2
 305              	.L29:
 306 003c 50000000 		.word	.LC5
 307 0040 3C000000 		.word	.LC4
 308              		.cfi_endproc
 309              	.LFE122:
 310              		.size	pwmChangePeriod, .-pwmChangePeriod
 311              		.section	.text.pwmEnableChannel,"ax",%progbits
 312              		.align	2
 313              		.p2align 4,,15
 314              		.global	pwmEnableChannel
 315              		.thumb
 316              		.thumb_func
 317              		.type	pwmEnableChannel, %function
 318              	pwmEnableChannel:
 319              	.LFB123:
 320              		.loc 1 174 0
 321              		.cfi_startproc
 322              		@ args = 0, pretend = 0, frame = 0
 323              		@ frame_needed = 0, uses_anonymous_args = 0
 324              	.LVL28:
 325 0000 70B5     		push	{r4, r5, r6, lr}
 326              		.cfi_def_cfa_offset 16
 327              		.cfi_offset 4, -16
 328              		.cfi_offset 5, -12
 329              		.cfi_offset 6, -8
 330              		.cfi_offset 14, -4
 331              		.loc 1 174 0
 332 0002 0D46     		mov	r5, r1
 333 0004 1646     		mov	r6, r2
 334              		.loc 1 176 0
 335 0006 0446     		mov	r4, r0
 336 0008 B8B1     		cbz	r0, .L32
 337              		.loc 1 176 0 is_stmt 0 discriminator 2
 338 000a 0329     		cmp	r1, #3
 339 000c 15D8     		bhi	.L32
 340              	.LVL29:
 341              	.L33:
 342              	.LBB8:
ARM GAS  /tmp/ccLOk4hM.s 			page 7


 343              		.loc 1 179 0 is_stmt 1
 344 000e 2023     		movs	r3, #32
 345              	@ 179 "ChibiOS_2.6.5/os/hal/src/pwm.c" 1
 346 0010 83F31188 		msr     BASEPRI, r3
 347              	@ 0 "" 2
 348              		.thumb
 349              	.LBE8:
 350 0014 FFF7FEFF 		bl	dbg_check_lock
 351              	.LVL30:
 352              		.loc 1 180 0
 353 0018 2378     		ldrb	r3, [r4]	@ zero_extendqisi2
 354 001a 022B     		cmp	r3, #2
 355 001c 02D0     		beq	.L34
 356              		.loc 1 180 0 is_stmt 0 discriminator 1
 357 001e 0948     		ldr	r0, .L42
 358 0020 FFF7FEFF 		bl	chDbgPanic
 359              	.LVL31:
 360              	.L34:
 361              		.loc 1 182 0 is_stmt 1
 362 0024 2046     		mov	r0, r4
 363 0026 2946     		mov	r1, r5
 364 0028 3246     		mov	r2, r6
 365 002a FFF7FEFF 		bl	pwm_lld_enable_channel
 366              	.LVL32:
 367              		.loc 1 183 0
 368 002e FFF7FEFF 		bl	dbg_check_unlock
 369              	.LVL33:
 370              	.LBB9:
 371 0032 0023     		movs	r3, #0
 372              	@ 183 "ChibiOS_2.6.5/os/hal/src/pwm.c" 1
 373 0034 83F31188 		msr     BASEPRI, r3
 374              	@ 0 "" 2
 375              		.thumb
 376 0038 70BD     		pop	{r4, r5, r6, pc}
 377              	.LVL34:
 378              	.L32:
 379              	.LBE9:
 380              		.loc 1 176 0 discriminator 3
 381 003a 0348     		ldr	r0, .L42+4
 382              	.LVL35:
 383 003c FFF7FEFF 		bl	chDbgPanic
 384              	.LVL36:
 385 0040 E5E7     		b	.L33
 386              	.L43:
 387 0042 00BF     		.align	2
 388              	.L42:
 389 0044 80000000 		.word	.LC7
 390 0048 68000000 		.word	.LC6
 391              		.cfi_endproc
 392              	.LFE123:
 393              		.size	pwmEnableChannel, .-pwmEnableChannel
 394              		.section	.text.pwmDisableChannel,"ax",%progbits
 395              		.align	2
 396              		.p2align 4,,15
 397              		.global	pwmDisableChannel
 398              		.thumb
 399              		.thumb_func
ARM GAS  /tmp/ccLOk4hM.s 			page 8


 400              		.type	pwmDisableChannel, %function
 401              	pwmDisableChannel:
 402              	.LFB124:
 403              		.loc 1 200 0
 404              		.cfi_startproc
 405              		@ args = 0, pretend = 0, frame = 0
 406              		@ frame_needed = 0, uses_anonymous_args = 0
 407              	.LVL37:
 408 0000 38B5     		push	{r3, r4, r5, lr}
 409              		.cfi_def_cfa_offset 16
 410              		.cfi_offset 3, -16
 411              		.cfi_offset 4, -12
 412              		.cfi_offset 5, -8
 413              		.cfi_offset 14, -4
 414              		.loc 1 200 0
 415 0002 0D46     		mov	r5, r1
 416              		.loc 1 202 0
 417 0004 0446     		mov	r4, r0
 418 0006 B0B1     		cbz	r0, .L45
 419              		.loc 1 202 0 is_stmt 0 discriminator 2
 420 0008 0329     		cmp	r1, #3
 421 000a 14D8     		bhi	.L45
 422              	.LVL38:
 423              	.L46:
 424              	.LBB10:
 425              		.loc 1 205 0 is_stmt 1
 426 000c 2023     		movs	r3, #32
 427              	@ 205 "ChibiOS_2.6.5/os/hal/src/pwm.c" 1
 428 000e 83F31188 		msr     BASEPRI, r3
 429              	@ 0 "" 2
 430              		.thumb
 431              	.LBE10:
 432 0012 FFF7FEFF 		bl	dbg_check_lock
 433              	.LVL39:
 434              		.loc 1 206 0
 435 0016 2378     		ldrb	r3, [r4]	@ zero_extendqisi2
 436 0018 022B     		cmp	r3, #2
 437 001a 02D0     		beq	.L47
 438              		.loc 1 206 0 is_stmt 0 discriminator 1
 439 001c 0848     		ldr	r0, .L55
 440 001e FFF7FEFF 		bl	chDbgPanic
 441              	.LVL40:
 442              	.L47:
 443              		.loc 1 208 0 is_stmt 1
 444 0022 2046     		mov	r0, r4
 445 0024 2946     		mov	r1, r5
 446 0026 FFF7FEFF 		bl	pwm_lld_disable_channel
 447              	.LVL41:
 448              		.loc 1 209 0
 449 002a FFF7FEFF 		bl	dbg_check_unlock
 450              	.LVL42:
 451              	.LBB11:
 452 002e 0023     		movs	r3, #0
 453              	@ 209 "ChibiOS_2.6.5/os/hal/src/pwm.c" 1
 454 0030 83F31188 		msr     BASEPRI, r3
 455              	@ 0 "" 2
 456              		.thumb
ARM GAS  /tmp/ccLOk4hM.s 			page 9


 457 0034 38BD     		pop	{r3, r4, r5, pc}
 458              	.LVL43:
 459              	.L45:
 460              	.LBE11:
 461              		.loc 1 202 0 discriminator 3
 462 0036 0348     		ldr	r0, .L55+4
 463              	.LVL44:
 464 0038 FFF7FEFF 		bl	chDbgPanic
 465              	.LVL45:
 466 003c E6E7     		b	.L46
 467              	.L56:
 468 003e 00BF     		.align	2
 469              	.L55:
 470 0040 98000000 		.word	.LC8
 471 0044 68000000 		.word	.LC6
 472              		.cfi_endproc
 473              	.LFE124:
 474              		.size	pwmDisableChannel, .-pwmDisableChannel
 475              		.section	.rodata.str1.4,"aMS",%progbits,1
 476              		.align	2
 477              	.LC0:
 478 0000 2270776D 		.ascii	"\"pwmStart\"()\000"
 478      53746172 
 478      74222829 
 478      00
 479 000d 000000   		.space	3
 480              	.LC1:
 481 0010 70776D53 		.ascii	"pwmStart(), #1\000"
 481      74617274 
 481      28292C20 
 481      233100
 482 001f 00       		.space	1
 483              	.LC2:
 484 0020 2270776D 		.ascii	"\"pwmStop\"()\000"
 484      53746F70 
 484      22282900 
 485              	.LC3:
 486 002c 70776D53 		.ascii	"pwmStop(), #1\000"
 486      746F7028 
 486      292C2023 
 486      3100
 487 003a 0000     		.space	2
 488              	.LC4:
 489 003c 2270776D 		.ascii	"\"pwmChangePeriod\"()\000"
 489      4368616E 
 489      67655065 
 489      72696F64 
 489      22282900 
 490              	.LC5:
 491 0050 70776D43 		.ascii	"pwmChangePeriod(), #1\000"
 491      68616E67 
 491      65506572 
 491      696F6428 
 491      292C2023 
 492 0066 0000     		.space	2
 493              	.LC6:
 494 0068 2270776D 		.ascii	"\"pwmEnableChannel\"()\000"
ARM GAS  /tmp/ccLOk4hM.s 			page 10


 494      456E6162 
 494      6C654368 
 494      616E6E65 
 494      6C222829 
 495 007d 000000   		.space	3
 496              	.LC7:
 497 0080 70776D45 		.ascii	"pwmEnableChannel(), #1\000"
 497      6E61626C 
 497      65436861 
 497      6E6E656C 
 497      28292C20 
 498 0097 00       		.space	1
 499              	.LC8:
 500 0098 70776D44 		.ascii	"pwmDisableChannel(), #1\000"
 500      69736162 
 500      6C654368 
 500      616E6E65 
 500      6C28292C 
 501              		.text
 502              	.Letext0:
 503              		.file 2 "/usr/include/newlib/machine/_default_types.h"
 504              		.file 3 "/usr/include/newlib/sys/_stdint.h"
 505              		.file 4 "ChibiOS_2.6.5/os/hal/include/pwm.h"
 506              		.file 5 "ChibiOS_2.6.5/os/hal/platforms/STM32/TIMv1/pwm_lld.h"
 507              		.file 6 "ChibiOS_2.6.5/os/hal/platforms/STM32/TIMv1/stm32_tim.h"
 508              		.file 7 "ChibiOS_2.6.5/os/kernel/include/chdebug.h"
 509              		.file 8 "ChibiOS_2.6.5/os/ports/common/ARMCMx/CMSIS/include/core_cm4.h"
 510              		.section	.debug_info,"",%progbits
 511              	.Ldebug_info0:
 512 0000 07080000 		.4byte	0x807
 513 0004 0400     		.2byte	0x4
 514 0006 00000000 		.4byte	.Ldebug_abbrev0
 515 000a 04       		.byte	0x4
 516 000b 01       		.uleb128 0x1
 517 000c B7020000 		.4byte	.LASF68
 518 0010 01       		.byte	0x1
 519 0011 90020000 		.4byte	.LASF69
 520 0015 AB000000 		.4byte	.LASF70
 521 0019 00000000 		.4byte	.Ldebug_ranges0+0
 522 001d 00000000 		.4byte	0
 523 0021 00000000 		.4byte	.Ldebug_line0
 524 0025 02       		.uleb128 0x2
 525 0026 04       		.byte	0x4
 526 0027 05       		.byte	0x5
 527 0028 696E7400 		.ascii	"int\000"
 528 002c 03       		.uleb128 0x3
 529 002d 04       		.byte	0x4
 530 002e 07       		.byte	0x7
 531 002f 27020000 		.4byte	.LASF0
 532 0033 03       		.uleb128 0x3
 533 0034 01       		.byte	0x1
 534 0035 06       		.byte	0x6
 535 0036 EC010000 		.4byte	.LASF1
 536 003a 04       		.uleb128 0x4
 537 003b 5C010000 		.4byte	.LASF4
 538 003f 02       		.byte	0x2
 539 0040 1D       		.byte	0x1d
ARM GAS  /tmp/ccLOk4hM.s 			page 11


 540 0041 45000000 		.4byte	0x45
 541 0045 03       		.uleb128 0x3
 542 0046 01       		.byte	0x1
 543 0047 08       		.byte	0x8
 544 0048 A4010000 		.4byte	.LASF2
 545 004c 03       		.uleb128 0x3
 546 004d 02       		.byte	0x2
 547 004e 05       		.byte	0x5
 548 004f 29000000 		.4byte	.LASF3
 549 0053 04       		.uleb128 0x4
 550 0054 7A000000 		.4byte	.LASF5
 551 0058 02       		.byte	0x2
 552 0059 2B       		.byte	0x2b
 553 005a 5E000000 		.4byte	0x5e
 554 005e 03       		.uleb128 0x3
 555 005f 02       		.byte	0x2
 556 0060 07       		.byte	0x7
 557 0061 47020000 		.4byte	.LASF6
 558 0065 04       		.uleb128 0x4
 559 0066 92030000 		.4byte	.LASF7
 560 006a 02       		.byte	0x2
 561 006b 3F       		.byte	0x3f
 562 006c 70000000 		.4byte	0x70
 563 0070 03       		.uleb128 0x3
 564 0071 04       		.byte	0x4
 565 0072 05       		.byte	0x5
 566 0073 3A010000 		.4byte	.LASF8
 567 0077 04       		.uleb128 0x4
 568 0078 6A000000 		.4byte	.LASF9
 569 007c 02       		.byte	0x2
 570 007d 41       		.byte	0x41
 571 007e 82000000 		.4byte	0x82
 572 0082 03       		.uleb128 0x3
 573 0083 04       		.byte	0x4
 574 0084 07       		.byte	0x7
 575 0085 7A030000 		.4byte	.LASF10
 576 0089 03       		.uleb128 0x3
 577 008a 08       		.byte	0x8
 578 008b 05       		.byte	0x5
 579 008c 2C010000 		.4byte	.LASF11
 580 0090 03       		.uleb128 0x3
 581 0091 08       		.byte	0x8
 582 0092 07       		.byte	0x7
 583 0093 07020000 		.4byte	.LASF12
 584 0097 04       		.uleb128 0x4
 585 0098 A3000000 		.4byte	.LASF13
 586 009c 03       		.byte	0x3
 587 009d 14       		.byte	0x14
 588 009e 3A000000 		.4byte	0x3a
 589 00a2 04       		.uleb128 0x4
 590 00a3 34020000 		.4byte	.LASF14
 591 00a7 03       		.byte	0x3
 592 00a8 1A       		.byte	0x1a
 593 00a9 53000000 		.4byte	0x53
 594 00ad 04       		.uleb128 0x4
 595 00ae 82020000 		.4byte	.LASF15
 596 00b2 03       		.byte	0x3
ARM GAS  /tmp/ccLOk4hM.s 			page 12


 597 00b3 1F       		.byte	0x1f
 598 00b4 65000000 		.4byte	0x65
 599 00b8 04       		.uleb128 0x4
 600 00b9 1E020000 		.4byte	.LASF16
 601 00bd 03       		.byte	0x3
 602 00be 20       		.byte	0x20
 603 00bf 77000000 		.4byte	0x77
 604 00c3 03       		.uleb128 0x3
 605 00c4 01       		.byte	0x1
 606 00c5 02       		.byte	0x2
 607 00c6 8A020000 		.4byte	.LASF17
 608 00ca 05       		.uleb128 0x5
 609 00cb B8000000 		.4byte	0xb8
 610 00cf 03       		.uleb128 0x3
 611 00d0 04       		.byte	0x4
 612 00d1 07       		.byte	0x7
 613 00d2 3C000000 		.4byte	.LASF18
 614 00d6 06       		.uleb128 0x6
 615 00d7 04       		.byte	0x4
 616 00d8 DC000000 		.4byte	0xdc
 617 00dc 07       		.uleb128 0x7
 618 00dd E1000000 		.4byte	0xe1
 619 00e1 03       		.uleb128 0x3
 620 00e2 01       		.byte	0x1
 621 00e3 08       		.byte	0x8
 622 00e4 67020000 		.4byte	.LASF19
 623 00e8 08       		.uleb128 0x8
 624 00e9 B8000000 		.4byte	0xb8
 625 00ed F8000000 		.4byte	0xf8
 626 00f1 09       		.uleb128 0x9
 627 00f2 CF000000 		.4byte	0xcf
 628 00f6 03       		.byte	0x3
 629 00f7 00       		.byte	0
 630 00f8 05       		.uleb128 0x5
 631 00f9 AD000000 		.4byte	0xad
 632 00fd 0A       		.uleb128 0xa
 633 00fe 01       		.byte	0x1
 634 00ff 04       		.byte	0x4
 635 0100 55       		.byte	0x55
 636 0101 18010000 		.4byte	0x118
 637 0105 0B       		.uleb128 0xb
 638 0106 99010000 		.4byte	.LASF20
 639 010a 00       		.sleb128 0
 640 010b 0B       		.uleb128 0xb
 641 010c A6030000 		.4byte	.LASF21
 642 0110 01       		.sleb128 1
 643 0111 0B       		.uleb128 0xb
 644 0112 9C030000 		.4byte	.LASF22
 645 0116 02       		.sleb128 2
 646 0117 00       		.byte	0
 647 0118 04       		.uleb128 0x4
 648 0119 EE030000 		.4byte	.LASF23
 649 011d 04       		.byte	0x4
 650 011e 59       		.byte	0x59
 651 011f FD000000 		.4byte	0xfd
 652 0123 04       		.uleb128 0x4
 653 0124 78020000 		.4byte	.LASF24
ARM GAS  /tmp/ccLOk4hM.s 			page 13


 654 0128 04       		.byte	0x4
 655 0129 5E       		.byte	0x5e
 656 012a 2E010000 		.4byte	0x12e
 657 012e 0C       		.uleb128 0xc
 658 012f 78020000 		.4byte	.LASF24
 659 0133 14       		.byte	0x14
 660 0134 05       		.byte	0x5
 661 0135 6F01     		.2byte	0x16f
 662 0137 7D010000 		.4byte	0x17d
 663 013b 0D       		.uleb128 0xd
 664 013c 17000000 		.4byte	.LASF25
 665 0140 05       		.byte	0x5
 666 0141 7301     		.2byte	0x173
 667 0143 18010000 		.4byte	0x118
 668 0147 00       		.byte	0
 669 0148 0D       		.uleb128 0xd
 670 0149 8E000000 		.4byte	.LASF26
 671 014d 05       		.byte	0x5
 672 014e 7701     		.2byte	0x177
 673 0150 91030000 		.4byte	0x391
 674 0154 04       		.byte	0x4
 675 0155 0D       		.uleb128 0xd
 676 0156 55010000 		.4byte	.LASF27
 677 015a 05       		.byte	0x5
 678 015b 7B01     		.2byte	0x17b
 679 015d E1020000 		.4byte	0x2e1
 680 0161 08       		.byte	0x8
 681 0162 0D       		.uleb128 0xd
 682 0163 8C030000 		.4byte	.LASF28
 683 0167 05       		.byte	0x5
 684 0168 8301     		.2byte	0x183
 685 016a B8000000 		.4byte	0xb8
 686 016e 0C       		.byte	0xc
 687 016f 0E       		.uleb128 0xe
 688 0170 74696D00 		.ascii	"tim\000"
 689 0174 05       		.byte	0x5
 690 0175 8701     		.2byte	0x187
 691 0177 9C030000 		.4byte	0x39c
 692 017b 10       		.byte	0x10
 693 017c 00       		.byte	0
 694 017d 04       		.uleb128 0x4
 695 017e F9030000 		.4byte	.LASF29
 696 0182 04       		.byte	0x4
 697 0183 65       		.byte	0x65
 698 0184 88010000 		.4byte	0x188
 699 0188 06       		.uleb128 0x6
 700 0189 04       		.byte	0x4
 701 018a 8E010000 		.4byte	0x18e
 702 018e 0F       		.uleb128 0xf
 703 018f 99010000 		.4byte	0x199
 704 0193 10       		.uleb128 0x10
 705 0194 99010000 		.4byte	0x199
 706 0198 00       		.byte	0
 707 0199 06       		.uleb128 0x6
 708 019a 04       		.byte	0x4
 709 019b 23010000 		.4byte	0x123
 710 019f 11       		.uleb128 0x11
ARM GAS  /tmp/ccLOk4hM.s 			page 14


 711 01a0 60       		.byte	0x60
 712 01a1 06       		.byte	0x6
 713 01a2 9E01     		.2byte	0x19e
 714 01a4 B8020000 		.4byte	0x2b8
 715 01a8 0E       		.uleb128 0xe
 716 01a9 43523100 		.ascii	"CR1\000"
 717 01ad 06       		.byte	0x6
 718 01ae 9F01     		.2byte	0x19f
 719 01b0 CA000000 		.4byte	0xca
 720 01b4 00       		.byte	0
 721 01b5 0E       		.uleb128 0xe
 722 01b6 43523200 		.ascii	"CR2\000"
 723 01ba 06       		.byte	0x6
 724 01bb A001     		.2byte	0x1a0
 725 01bd CA000000 		.4byte	0xca
 726 01c1 04       		.byte	0x4
 727 01c2 0D       		.uleb128 0xd
 728 01c3 94010000 		.4byte	.LASF30
 729 01c7 06       		.byte	0x6
 730 01c8 A101     		.2byte	0x1a1
 731 01ca CA000000 		.4byte	0xca
 732 01ce 08       		.byte	0x8
 733 01cf 0D       		.uleb128 0xd
 734 01d0 42020000 		.4byte	.LASF31
 735 01d4 06       		.byte	0x6
 736 01d5 A201     		.2byte	0x1a2
 737 01d7 CA000000 		.4byte	0xca
 738 01db 0C       		.byte	0xc
 739 01dc 0E       		.uleb128 0xe
 740 01dd 535200   		.ascii	"SR\000"
 741 01e0 06       		.byte	0x6
 742 01e1 A301     		.2byte	0x1a3
 743 01e3 CA000000 		.4byte	0xca
 744 01e7 10       		.byte	0x10
 745 01e8 0E       		.uleb128 0xe
 746 01e9 45475200 		.ascii	"EGR\000"
 747 01ed 06       		.byte	0x6
 748 01ee A401     		.2byte	0x1a4
 749 01f0 CA000000 		.4byte	0xca
 750 01f4 14       		.byte	0x14
 751 01f5 0D       		.uleb128 0xd
 752 01f6 66010000 		.4byte	.LASF32
 753 01fa 06       		.byte	0x6
 754 01fb A501     		.2byte	0x1a5
 755 01fd CA000000 		.4byte	0xca
 756 0201 18       		.byte	0x18
 757 0202 0D       		.uleb128 0xd
 758 0203 1D000000 		.4byte	.LASF33
 759 0207 06       		.byte	0x6
 760 0208 A601     		.2byte	0x1a6
 761 020a CA000000 		.4byte	0xca
 762 020e 1C       		.byte	0x1c
 763 020f 0D       		.uleb128 0xd
 764 0210 00000000 		.4byte	.LASF34
 765 0214 06       		.byte	0x6
 766 0215 A701     		.2byte	0x1a7
 767 0217 CA000000 		.4byte	0xca
ARM GAS  /tmp/ccLOk4hM.s 			page 15


 768 021b 20       		.byte	0x20
 769 021c 0E       		.uleb128 0xe
 770 021d 434E5400 		.ascii	"CNT\000"
 771 0221 06       		.byte	0x6
 772 0222 A801     		.2byte	0x1a8
 773 0224 CA000000 		.4byte	0xca
 774 0228 24       		.byte	0x24
 775 0229 0E       		.uleb128 0xe
 776 022a 50534300 		.ascii	"PSC\000"
 777 022e 06       		.byte	0x6
 778 022f A901     		.2byte	0x1a9
 779 0231 CA000000 		.4byte	0xca
 780 0235 28       		.byte	0x28
 781 0236 0E       		.uleb128 0xe
 782 0237 41525200 		.ascii	"ARR\000"
 783 023b 06       		.byte	0x6
 784 023c AA01     		.2byte	0x1aa
 785 023e CA000000 		.4byte	0xca
 786 0242 2C       		.byte	0x2c
 787 0243 0E       		.uleb128 0xe
 788 0244 52435200 		.ascii	"RCR\000"
 789 0248 06       		.byte	0x6
 790 0249 AB01     		.2byte	0x1ab
 791 024b CA000000 		.4byte	0xca
 792 024f 30       		.byte	0x30
 793 0250 0E       		.uleb128 0xe
 794 0251 43435200 		.ascii	"CCR\000"
 795 0255 06       		.byte	0x6
 796 0256 AC01     		.2byte	0x1ac
 797 0258 B8020000 		.4byte	0x2b8
 798 025c 34       		.byte	0x34
 799 025d 0D       		.uleb128 0xd
 800 025e 3D020000 		.4byte	.LASF35
 801 0262 06       		.byte	0x6
 802 0263 AD01     		.2byte	0x1ad
 803 0265 CA000000 		.4byte	0xca
 804 0269 44       		.byte	0x44
 805 026a 0E       		.uleb128 0xe
 806 026b 44435200 		.ascii	"DCR\000"
 807 026f 06       		.byte	0x6
 808 0270 AE01     		.2byte	0x1ae
 809 0272 CA000000 		.4byte	0xca
 810 0276 48       		.byte	0x48
 811 0277 0D       		.uleb128 0xd
 812 0278 12000000 		.4byte	.LASF36
 813 027c 06       		.byte	0x6
 814 027d AF01     		.2byte	0x1af
 815 027f CA000000 		.4byte	0xca
 816 0283 4C       		.byte	0x4c
 817 0284 0E       		.uleb128 0xe
 818 0285 4F5200   		.ascii	"OR\000"
 819 0288 06       		.byte	0x6
 820 0289 B001     		.2byte	0x1b0
 821 028b CA000000 		.4byte	0xca
 822 028f 50       		.byte	0x50
 823 0290 0D       		.uleb128 0xd
 824 0291 23000000 		.4byte	.LASF37
ARM GAS  /tmp/ccLOk4hM.s 			page 16


 825 0295 06       		.byte	0x6
 826 0296 B101     		.2byte	0x1b1
 827 0298 CA000000 		.4byte	0xca
 828 029c 54       		.byte	0x54
 829 029d 0D       		.uleb128 0xd
 830 029e 4B010000 		.4byte	.LASF38
 831 02a2 06       		.byte	0x6
 832 02a3 B201     		.2byte	0x1b2
 833 02a5 CA000000 		.4byte	0xca
 834 02a9 58       		.byte	0x58
 835 02aa 0D       		.uleb128 0xd
 836 02ab 50010000 		.4byte	.LASF39
 837 02af 06       		.byte	0x6
 838 02b0 B301     		.2byte	0x1b3
 839 02b2 CA000000 		.4byte	0xca
 840 02b6 5C       		.byte	0x5c
 841 02b7 00       		.byte	0
 842 02b8 05       		.uleb128 0x5
 843 02b9 E8000000 		.4byte	0xe8
 844 02bd 12       		.uleb128 0x12
 845 02be 6C020000 		.4byte	.LASF40
 846 02c2 06       		.byte	0x6
 847 02c3 B401     		.2byte	0x1b4
 848 02c5 9F010000 		.4byte	0x19f
 849 02c9 12       		.uleb128 0x12
 850 02ca D7030000 		.4byte	.LASF41
 851 02ce 05       		.byte	0x5
 852 02cf 2001     		.2byte	0x120
 853 02d1 B8000000 		.4byte	0xb8
 854 02d5 12       		.uleb128 0x12
 855 02d6 5D000000 		.4byte	.LASF42
 856 02da 05       		.byte	0x5
 857 02db 2501     		.2byte	0x125
 858 02dd 97000000 		.4byte	0x97
 859 02e1 12       		.uleb128 0x12
 860 02e2 33000000 		.4byte	.LASF43
 861 02e6 05       		.byte	0x5
 862 02e7 2A01     		.2byte	0x12a
 863 02e9 A2000000 		.4byte	0xa2
 864 02ed 11       		.uleb128 0x11
 865 02ee 08       		.byte	0x8
 866 02ef 05       		.byte	0x5
 867 02f0 2F01     		.2byte	0x12f
 868 02f2 11030000 		.4byte	0x311
 869 02f6 0D       		.uleb128 0xd
 870 02f7 75000000 		.4byte	.LASF44
 871 02fb 05       		.byte	0x5
 872 02fc 3301     		.2byte	0x133
 873 02fe C9020000 		.4byte	0x2c9
 874 0302 00       		.byte	0
 875 0303 0D       		.uleb128 0xd
 876 0304 07040000 		.4byte	.LASF45
 877 0308 05       		.byte	0x5
 878 0309 3901     		.2byte	0x139
 879 030b 7D010000 		.4byte	0x17d
 880 030f 04       		.byte	0x4
 881 0310 00       		.byte	0
ARM GAS  /tmp/ccLOk4hM.s 			page 17


 882 0311 12       		.uleb128 0x12
 883 0312 C6030000 		.4byte	.LASF46
 884 0316 05       		.byte	0x5
 885 0317 3B01     		.2byte	0x13b
 886 0319 ED020000 		.4byte	0x2ed
 887 031d 11       		.uleb128 0x11
 888 031e 34       		.byte	0x34
 889 031f 05       		.byte	0x5
 890 0320 4001     		.2byte	0x140
 891 0322 75030000 		.4byte	0x375
 892 0326 0D       		.uleb128 0xd
 893 0327 BC030000 		.4byte	.LASF47
 894 032b 05       		.byte	0x5
 895 032c 4601     		.2byte	0x146
 896 032e B8000000 		.4byte	0xb8
 897 0332 00       		.byte	0
 898 0333 0D       		.uleb128 0xd
 899 0334 55010000 		.4byte	.LASF27
 900 0338 05       		.byte	0x5
 901 0339 4C01     		.2byte	0x14c
 902 033b E1020000 		.4byte	0x2e1
 903 033f 04       		.byte	0x4
 904 0340 0D       		.uleb128 0xd
 905 0341 07040000 		.4byte	.LASF45
 906 0345 05       		.byte	0x5
 907 0346 5201     		.2byte	0x152
 908 0348 7D010000 		.4byte	0x17d
 909 034c 08       		.byte	0x8
 910 034d 0D       		.uleb128 0xd
 911 034e 85000000 		.4byte	.LASF48
 912 0352 05       		.byte	0x5
 913 0353 5601     		.2byte	0x156
 914 0355 75030000 		.4byte	0x375
 915 0359 0C       		.byte	0xc
 916 035a 0E       		.uleb128 0xe
 917 035b 63723200 		.ascii	"cr2\000"
 918 035f 05       		.byte	0x5
 919 0360 5C01     		.2byte	0x15c
 920 0362 B8000000 		.4byte	0xb8
 921 0366 2C       		.byte	0x2c
 922 0367 0D       		.uleb128 0xd
 923 0368 AF030000 		.4byte	.LASF49
 924 036c 05       		.byte	0x5
 925 036d 6901     		.2byte	0x169
 926 036f B8000000 		.4byte	0xb8
 927 0373 30       		.byte	0x30
 928 0374 00       		.byte	0
 929 0375 08       		.uleb128 0x8
 930 0376 11030000 		.4byte	0x311
 931 037a 85030000 		.4byte	0x385
 932 037e 09       		.uleb128 0x9
 933 037f CF000000 		.4byte	0xcf
 934 0383 03       		.byte	0x3
 935 0384 00       		.byte	0
 936 0385 12       		.uleb128 0x12
 937 0386 7A010000 		.4byte	.LASF50
 938 038a 05       		.byte	0x5
ARM GAS  /tmp/ccLOk4hM.s 			page 18


 939 038b 6A01     		.2byte	0x16a
 940 038d 1D030000 		.4byte	0x31d
 941 0391 06       		.uleb128 0x6
 942 0392 04       		.byte	0x4
 943 0393 97030000 		.4byte	0x397
 944 0397 07       		.uleb128 0x7
 945 0398 85030000 		.4byte	0x385
 946 039c 06       		.uleb128 0x6
 947 039d 04       		.byte	0x4
 948 039e BD020000 		.4byte	0x2bd
 949 03a2 13       		.uleb128 0x13
 950 03a3 43010000 		.4byte	.LASF51
 951 03a7 01       		.byte	0x1
 952 03a8 44       		.byte	0x44
 953 03a9 00000000 		.4byte	.LFB118
 954 03ad 04000000 		.4byte	.LFE118-.LFB118
 955 03b1 01       		.uleb128 0x1
 956 03b2 9C       		.byte	0x9c
 957 03b3 C1030000 		.4byte	0x3c1
 958 03b7 14       		.uleb128 0x14
 959 03b8 04000000 		.4byte	.LVL0
 960 03bc 90070000 		.4byte	0x790
 961 03c0 00       		.byte	0
 962 03c1 13       		.uleb128 0x13
 963 03c2 95000000 		.4byte	.LASF52
 964 03c6 01       		.byte	0x1
 965 03c7 50       		.byte	0x50
 966 03c8 00000000 		.4byte	.LFB119
 967 03cc 0A000000 		.4byte	.LFE119-.LFB119
 968 03d0 01       		.uleb128 0x1
 969 03d1 9C       		.byte	0x9c
 970 03d2 E4030000 		.4byte	0x3e4
 971 03d6 15       		.uleb128 0x15
 972 03d7 8F010000 		.4byte	.LASF54
 973 03db 01       		.byte	0x1
 974 03dc 50       		.byte	0x50
 975 03dd 99010000 		.4byte	0x199
 976 03e1 01       		.uleb128 0x1
 977 03e2 50       		.byte	0x50
 978 03e3 00       		.byte	0
 979 03e4 13       		.uleb128 0x13
 980 03e5 23010000 		.4byte	.LASF53
 981 03e9 01       		.byte	0x1
 982 03ea 63       		.byte	0x63
 983 03eb 00000000 		.4byte	.LFB120
 984 03ef 50000000 		.4byte	.LFE120-.LFB120
 985 03f3 01       		.uleb128 0x1
 986 03f4 9C       		.byte	0x9c
 987 03f5 9E040000 		.4byte	0x49e
 988 03f9 16       		.uleb128 0x16
 989 03fa 8F010000 		.4byte	.LASF54
 990 03fe 01       		.byte	0x1
 991 03ff 63       		.byte	0x63
 992 0400 99010000 		.4byte	0x199
 993 0404 00000000 		.4byte	.LLST0
 994 0408 16       		.uleb128 0x16
 995 0409 8E000000 		.4byte	.LASF26
ARM GAS  /tmp/ccLOk4hM.s 			page 19


 996 040d 01       		.byte	0x1
 997 040e 63       		.byte	0x63
 998 040f 91030000 		.4byte	0x391
 999 0413 34000000 		.4byte	.LLST1
 1000 0417 17       		.uleb128 0x17
 1001 0418 0A000000 		.4byte	.LBB2
 1002 041c 06000000 		.4byte	.LBE2-.LBB2
 1003 0420 32040000 		.4byte	0x432
 1004 0424 18       		.uleb128 0x18
 1005 0425 746D7000 		.ascii	"tmp\000"
 1006 0429 01       		.byte	0x1
 1007 042a 67       		.byte	0x67
 1008 042b B8000000 		.4byte	0xb8
 1009 042f 01       		.uleb128 0x1
 1010 0430 53       		.byte	0x53
 1011 0431 00       		.byte	0
 1012 0432 17       		.uleb128 0x17
 1013 0433 36000000 		.4byte	.LBB3
 1014 0437 08000000 		.4byte	.LBE3-.LBB3
 1015 043b 4D040000 		.4byte	0x44d
 1016 043f 18       		.uleb128 0x18
 1017 0440 746D7000 		.ascii	"tmp\000"
 1018 0444 01       		.byte	0x1
 1019 0445 6E       		.byte	0x6e
 1020 0446 B8000000 		.4byte	0xb8
 1021 044a 01       		.uleb128 0x1
 1022 044b 53       		.byte	0x53
 1023 044c 00       		.byte	0
 1024 044d 19       		.uleb128 0x19
 1025 044e 14000000 		.4byte	.LVL4
 1026 0452 98070000 		.4byte	0x798
 1027 0456 1A       		.uleb128 0x1a
 1028 0457 22000000 		.4byte	.LVL5
 1029 045b 9F070000 		.4byte	0x79f
 1030 045f 6D040000 		.4byte	0x46d
 1031 0463 1B       		.uleb128 0x1b
 1032 0464 01       		.uleb128 0x1
 1033 0465 50       		.byte	0x50
 1034 0466 05       		.uleb128 0x5
 1035 0467 03       		.byte	0x3
 1036 0468 10000000 		.4byte	.LC1
 1037 046c 00       		.byte	0
 1038 046d 1A       		.uleb128 0x1a
 1039 046e 2E000000 		.4byte	.LVL6
 1040 0472 B0070000 		.4byte	0x7b0
 1041 0476 81040000 		.4byte	0x481
 1042 047a 1B       		.uleb128 0x1b
 1043 047b 01       		.uleb128 0x1
 1044 047c 50       		.byte	0x50
 1045 047d 02       		.uleb128 0x2
 1046 047e 74       		.byte	0x74
 1047 047f 00       		.sleb128 0
 1048 0480 00       		.byte	0
 1049 0481 19       		.uleb128 0x19
 1050 0482 36000000 		.4byte	.LVL7
 1051 0486 C2070000 		.4byte	0x7c2
 1052 048a 1C       		.uleb128 0x1c
ARM GAS  /tmp/ccLOk4hM.s 			page 20


 1053 048b 44000000 		.4byte	.LVL10
 1054 048f 9F070000 		.4byte	0x79f
 1055 0493 1B       		.uleb128 0x1b
 1056 0494 01       		.uleb128 0x1
 1057 0495 50       		.byte	0x50
 1058 0496 05       		.uleb128 0x5
 1059 0497 03       		.byte	0x3
 1060 0498 00000000 		.4byte	.LC0
 1061 049c 00       		.byte	0
 1062 049d 00       		.byte	0
 1063 049e 13       		.uleb128 0x13
 1064 049f B4030000 		.4byte	.LASF55
 1065 04a3 01       		.byte	0x1
 1066 04a4 78       		.byte	0x78
 1067 04a5 00000000 		.4byte	.LFB121
 1068 04a9 44000000 		.4byte	.LFE121-.LFB121
 1069 04ad 01       		.uleb128 0x1
 1070 04ae 9C       		.byte	0x9c
 1071 04af 49050000 		.4byte	0x549
 1072 04b3 16       		.uleb128 0x16
 1073 04b4 8F010000 		.4byte	.LASF54
 1074 04b8 01       		.byte	0x1
 1075 04b9 78       		.byte	0x78
 1076 04ba 99010000 		.4byte	0x199
 1077 04be 68000000 		.4byte	.LLST2
 1078 04c2 17       		.uleb128 0x17
 1079 04c3 06000000 		.4byte	.LBB4
 1080 04c7 06000000 		.4byte	.LBE4-.LBB4
 1081 04cb DD040000 		.4byte	0x4dd
 1082 04cf 18       		.uleb128 0x18
 1083 04d0 746D7000 		.ascii	"tmp\000"
 1084 04d4 01       		.byte	0x1
 1085 04d5 7C       		.byte	0x7c
 1086 04d6 B8000000 		.4byte	0xb8
 1087 04da 01       		.uleb128 0x1
 1088 04db 53       		.byte	0x53
 1089 04dc 00       		.byte	0
 1090 04dd 17       		.uleb128 0x17
 1091 04de 2C000000 		.4byte	.LBB5
 1092 04e2 08000000 		.4byte	.LBE5-.LBB5
 1093 04e6 F8040000 		.4byte	0x4f8
 1094 04ea 18       		.uleb128 0x18
 1095 04eb 746D7000 		.ascii	"tmp\000"
 1096 04ef 01       		.byte	0x1
 1097 04f0 81       		.byte	0x81
 1098 04f1 B8000000 		.4byte	0xb8
 1099 04f5 01       		.uleb128 0x1
 1100 04f6 53       		.byte	0x53
 1101 04f7 00       		.byte	0
 1102 04f8 19       		.uleb128 0x19
 1103 04f9 10000000 		.4byte	.LVL13
 1104 04fd 98070000 		.4byte	0x798
 1105 0501 1A       		.uleb128 0x1a
 1106 0502 1E000000 		.4byte	.LVL14
 1107 0506 9F070000 		.4byte	0x79f
 1108 050a 18050000 		.4byte	0x518
 1109 050e 1B       		.uleb128 0x1b
ARM GAS  /tmp/ccLOk4hM.s 			page 21


 1110 050f 01       		.uleb128 0x1
 1111 0510 50       		.byte	0x50
 1112 0511 05       		.uleb128 0x5
 1113 0512 03       		.byte	0x3
 1114 0513 2C000000 		.4byte	.LC3
 1115 0517 00       		.byte	0
 1116 0518 1A       		.uleb128 0x1a
 1117 0519 24000000 		.4byte	.LVL15
 1118 051d C9070000 		.4byte	0x7c9
 1119 0521 2C050000 		.4byte	0x52c
 1120 0525 1B       		.uleb128 0x1b
 1121 0526 01       		.uleb128 0x1
 1122 0527 50       		.byte	0x50
 1123 0528 02       		.uleb128 0x2
 1124 0529 74       		.byte	0x74
 1125 052a 00       		.sleb128 0
 1126 052b 00       		.byte	0
 1127 052c 19       		.uleb128 0x19
 1128 052d 2C000000 		.4byte	.LVL16
 1129 0531 C2070000 		.4byte	0x7c2
 1130 0535 1C       		.uleb128 0x1c
 1131 0536 3A000000 		.4byte	.LVL19
 1132 053a 9F070000 		.4byte	0x79f
 1133 053e 1B       		.uleb128 0x1b
 1134 053f 01       		.uleb128 0x1
 1135 0540 50       		.byte	0x50
 1136 0541 05       		.uleb128 0x5
 1137 0542 03       		.byte	0x3
 1138 0543 20000000 		.4byte	.LC2
 1139 0547 00       		.byte	0
 1140 0548 00       		.byte	0
 1141 0549 13       		.uleb128 0x13
 1142 054a 6A030000 		.4byte	.LASF56
 1143 054e 01       		.byte	0x1
 1144 054f 93       		.byte	0x93
 1145 0550 00000000 		.4byte	.LFB122
 1146 0554 44000000 		.4byte	.LFE122-.LFB122
 1147 0558 01       		.uleb128 0x1
 1148 0559 9C       		.byte	0x9c
 1149 055a EF050000 		.4byte	0x5ef
 1150 055e 16       		.uleb128 0x16
 1151 055f 8F010000 		.4byte	.LASF54
 1152 0563 01       		.byte	0x1
 1153 0564 93       		.byte	0x93
 1154 0565 99010000 		.4byte	0x199
 1155 0569 9C000000 		.4byte	.LLST3
 1156 056d 16       		.uleb128 0x16
 1157 056e 55010000 		.4byte	.LASF27
 1158 0572 01       		.byte	0x1
 1159 0573 93       		.byte	0x93
 1160 0574 E1020000 		.4byte	0x2e1
 1161 0578 D0000000 		.4byte	.LLST4
 1162 057c 17       		.uleb128 0x17
 1163 057d 08000000 		.4byte	.LBB6
 1164 0581 06000000 		.4byte	.LBE6-.LBB6
 1165 0585 97050000 		.4byte	0x597
 1166 0589 18       		.uleb128 0x18
ARM GAS  /tmp/ccLOk4hM.s 			page 22


 1167 058a 746D7000 		.ascii	"tmp\000"
 1168 058e 01       		.byte	0x1
 1169 058f 97       		.byte	0x97
 1170 0590 B8000000 		.4byte	0xb8
 1171 0594 01       		.uleb128 0x1
 1172 0595 53       		.byte	0x53
 1173 0596 00       		.byte	0
 1174 0597 17       		.uleb128 0x17
 1175 0598 2C000000 		.4byte	.LBB7
 1176 059c 08000000 		.4byte	.LBE7-.LBB7
 1177 05a0 B2050000 		.4byte	0x5b2
 1178 05a4 18       		.uleb128 0x18
 1179 05a5 746D7000 		.ascii	"tmp\000"
 1180 05a9 01       		.byte	0x1
 1181 05aa 9B       		.byte	0x9b
 1182 05ab B8000000 		.4byte	0xb8
 1183 05af 01       		.uleb128 0x1
 1184 05b0 53       		.byte	0x53
 1185 05b1 00       		.byte	0
 1186 05b2 19       		.uleb128 0x19
 1187 05b3 12000000 		.4byte	.LVL22
 1188 05b7 98070000 		.4byte	0x798
 1189 05bb 1A       		.uleb128 0x1a
 1190 05bc 1E000000 		.4byte	.LVL23
 1191 05c0 9F070000 		.4byte	0x79f
 1192 05c4 D2050000 		.4byte	0x5d2
 1193 05c8 1B       		.uleb128 0x1b
 1194 05c9 01       		.uleb128 0x1
 1195 05ca 50       		.byte	0x50
 1196 05cb 05       		.uleb128 0x5
 1197 05cc 03       		.byte	0x3
 1198 05cd 50000000 		.4byte	.LC5
 1199 05d1 00       		.byte	0
 1200 05d2 19       		.uleb128 0x19
 1201 05d3 2C000000 		.4byte	.LVL24
 1202 05d7 C2070000 		.4byte	0x7c2
 1203 05db 1C       		.uleb128 0x1c
 1204 05dc 3A000000 		.4byte	.LVL27
 1205 05e0 9F070000 		.4byte	0x79f
 1206 05e4 1B       		.uleb128 0x1b
 1207 05e5 01       		.uleb128 0x1
 1208 05e6 50       		.byte	0x50
 1209 05e7 05       		.uleb128 0x5
 1210 05e8 03       		.byte	0x3
 1211 05e9 3C000000 		.4byte	.LC4
 1212 05ed 00       		.byte	0
 1213 05ee 00       		.byte	0
 1214 05ef 13       		.uleb128 0x13
 1215 05f0 0C010000 		.4byte	.LASF57
 1216 05f4 01       		.byte	0x1
 1217 05f5 AC       		.byte	0xac
 1218 05f6 00000000 		.4byte	.LFB123
 1219 05fa 4C000000 		.4byte	.LFE123-.LFB123
 1220 05fe 01       		.uleb128 0x1
 1221 05ff 9C       		.byte	0x9c
 1222 0600 C4060000 		.4byte	0x6c4
 1223 0604 16       		.uleb128 0x16
ARM GAS  /tmp/ccLOk4hM.s 			page 23


 1224 0605 8F010000 		.4byte	.LASF54
 1225 0609 01       		.byte	0x1
 1226 060a AC       		.byte	0xac
 1227 060b 99010000 		.4byte	0x199
 1228 060f 0A010000 		.4byte	.LLST5
 1229 0613 16       		.uleb128 0x16
 1230 0614 AF020000 		.4byte	.LASF58
 1231 0618 01       		.byte	0x1
 1232 0619 AD       		.byte	0xad
 1233 061a D5020000 		.4byte	0x2d5
 1234 061e 3E010000 		.4byte	.LLST6
 1235 0622 16       		.uleb128 0x16
 1236 0623 1D010000 		.4byte	.LASF59
 1237 0627 01       		.byte	0x1
 1238 0628 AE       		.byte	0xae
 1239 0629 E1020000 		.4byte	0x2e1
 1240 062d 78010000 		.4byte	.LLST7
 1241 0631 17       		.uleb128 0x17
 1242 0632 0E000000 		.4byte	.LBB8
 1243 0636 06000000 		.4byte	.LBE8-.LBB8
 1244 063a 4C060000 		.4byte	0x64c
 1245 063e 18       		.uleb128 0x18
 1246 063f 746D7000 		.ascii	"tmp\000"
 1247 0643 01       		.byte	0x1
 1248 0644 B3       		.byte	0xb3
 1249 0645 B8000000 		.4byte	0xb8
 1250 0649 01       		.uleb128 0x1
 1251 064a 53       		.byte	0x53
 1252 064b 00       		.byte	0
 1253 064c 17       		.uleb128 0x17
 1254 064d 32000000 		.4byte	.LBB9
 1255 0651 08000000 		.4byte	.LBE9-.LBB9
 1256 0655 67060000 		.4byte	0x667
 1257 0659 18       		.uleb128 0x18
 1258 065a 746D7000 		.ascii	"tmp\000"
 1259 065e 01       		.byte	0x1
 1260 065f B7       		.byte	0xb7
 1261 0660 B8000000 		.4byte	0xb8
 1262 0664 01       		.uleb128 0x1
 1263 0665 53       		.byte	0x53
 1264 0666 00       		.byte	0
 1265 0667 19       		.uleb128 0x19
 1266 0668 18000000 		.4byte	.LVL30
 1267 066c 98070000 		.4byte	0x798
 1268 0670 1A       		.uleb128 0x1a
 1269 0671 24000000 		.4byte	.LVL31
 1270 0675 9F070000 		.4byte	0x79f
 1271 0679 87060000 		.4byte	0x687
 1272 067d 1B       		.uleb128 0x1b
 1273 067e 01       		.uleb128 0x1
 1274 067f 50       		.byte	0x50
 1275 0680 05       		.uleb128 0x5
 1276 0681 03       		.byte	0x3
 1277 0682 80000000 		.4byte	.LC7
 1278 0686 00       		.byte	0
 1279 0687 1A       		.uleb128 0x1a
 1280 0688 2E000000 		.4byte	.LVL32
ARM GAS  /tmp/ccLOk4hM.s 			page 24


 1281 068c DB070000 		.4byte	0x7db
 1282 0690 A7060000 		.4byte	0x6a7
 1283 0694 1B       		.uleb128 0x1b
 1284 0695 01       		.uleb128 0x1
 1285 0696 52       		.byte	0x52
 1286 0697 02       		.uleb128 0x2
 1287 0698 76       		.byte	0x76
 1288 0699 00       		.sleb128 0
 1289 069a 1B       		.uleb128 0x1b
 1290 069b 01       		.uleb128 0x1
 1291 069c 51       		.byte	0x51
 1292 069d 02       		.uleb128 0x2
 1293 069e 75       		.byte	0x75
 1294 069f 00       		.sleb128 0
 1295 06a0 1B       		.uleb128 0x1b
 1296 06a1 01       		.uleb128 0x1
 1297 06a2 50       		.byte	0x50
 1298 06a3 02       		.uleb128 0x2
 1299 06a4 74       		.byte	0x74
 1300 06a5 00       		.sleb128 0
 1301 06a6 00       		.byte	0
 1302 06a7 19       		.uleb128 0x19
 1303 06a8 32000000 		.4byte	.LVL33
 1304 06ac C2070000 		.4byte	0x7c2
 1305 06b0 1C       		.uleb128 0x1c
 1306 06b1 40000000 		.4byte	.LVL36
 1307 06b5 9F070000 		.4byte	0x79f
 1308 06b9 1B       		.uleb128 0x1b
 1309 06ba 01       		.uleb128 0x1
 1310 06bb 50       		.byte	0x50
 1311 06bc 05       		.uleb128 0x5
 1312 06bd 03       		.byte	0x3
 1313 06be 68000000 		.4byte	.LC6
 1314 06c2 00       		.byte	0
 1315 06c3 00       		.byte	0
 1316 06c4 13       		.uleb128 0x13
 1317 06c5 DA010000 		.4byte	.LASF60
 1318 06c9 01       		.byte	0x1
 1319 06ca C8       		.byte	0xc8
 1320 06cb 00000000 		.4byte	.LFB124
 1321 06cf 48000000 		.4byte	.LFE124-.LFB124
 1322 06d3 01       		.uleb128 0x1
 1323 06d4 9C       		.byte	0x9c
 1324 06d5 84070000 		.4byte	0x784
 1325 06d9 16       		.uleb128 0x16
 1326 06da 8F010000 		.4byte	.LASF54
 1327 06de 01       		.byte	0x1
 1328 06df C8       		.byte	0xc8
 1329 06e0 99010000 		.4byte	0x199
 1330 06e4 B2010000 		.4byte	.LLST8
 1331 06e8 16       		.uleb128 0x16
 1332 06e9 AF020000 		.4byte	.LASF58
 1333 06ed 01       		.byte	0x1
 1334 06ee C8       		.byte	0xc8
 1335 06ef D5020000 		.4byte	0x2d5
 1336 06f3 E6010000 		.4byte	.LLST9
 1337 06f7 17       		.uleb128 0x17
ARM GAS  /tmp/ccLOk4hM.s 			page 25


 1338 06f8 0C000000 		.4byte	.LBB10
 1339 06fc 06000000 		.4byte	.LBE10-.LBB10
 1340 0700 12070000 		.4byte	0x712
 1341 0704 18       		.uleb128 0x18
 1342 0705 746D7000 		.ascii	"tmp\000"
 1343 0709 01       		.byte	0x1
 1344 070a CD       		.byte	0xcd
 1345 070b B8000000 		.4byte	0xb8
 1346 070f 01       		.uleb128 0x1
 1347 0710 53       		.byte	0x53
 1348 0711 00       		.byte	0
 1349 0712 17       		.uleb128 0x17
 1350 0713 2E000000 		.4byte	.LBB11
 1351 0717 08000000 		.4byte	.LBE11-.LBB11
 1352 071b 2D070000 		.4byte	0x72d
 1353 071f 18       		.uleb128 0x18
 1354 0720 746D7000 		.ascii	"tmp\000"
 1355 0724 01       		.byte	0x1
 1356 0725 D1       		.byte	0xd1
 1357 0726 B8000000 		.4byte	0xb8
 1358 072a 01       		.uleb128 0x1
 1359 072b 53       		.byte	0x53
 1360 072c 00       		.byte	0
 1361 072d 19       		.uleb128 0x19
 1362 072e 16000000 		.4byte	.LVL39
 1363 0732 98070000 		.4byte	0x798
 1364 0736 1A       		.uleb128 0x1a
 1365 0737 22000000 		.4byte	.LVL40
 1366 073b 9F070000 		.4byte	0x79f
 1367 073f 4D070000 		.4byte	0x74d
 1368 0743 1B       		.uleb128 0x1b
 1369 0744 01       		.uleb128 0x1
 1370 0745 50       		.byte	0x50
 1371 0746 05       		.uleb128 0x5
 1372 0747 03       		.byte	0x3
 1373 0748 98000000 		.4byte	.LC8
 1374 074c 00       		.byte	0
 1375 074d 1A       		.uleb128 0x1a
 1376 074e 2A000000 		.4byte	.LVL41
 1377 0752 F7070000 		.4byte	0x7f7
 1378 0756 67070000 		.4byte	0x767
 1379 075a 1B       		.uleb128 0x1b
 1380 075b 01       		.uleb128 0x1
 1381 075c 51       		.byte	0x51
 1382 075d 02       		.uleb128 0x2
 1383 075e 75       		.byte	0x75
 1384 075f 00       		.sleb128 0
 1385 0760 1B       		.uleb128 0x1b
 1386 0761 01       		.uleb128 0x1
 1387 0762 50       		.byte	0x50
 1388 0763 02       		.uleb128 0x2
 1389 0764 74       		.byte	0x74
 1390 0765 00       		.sleb128 0
 1391 0766 00       		.byte	0
 1392 0767 19       		.uleb128 0x19
 1393 0768 2E000000 		.4byte	.LVL42
 1394 076c C2070000 		.4byte	0x7c2
ARM GAS  /tmp/ccLOk4hM.s 			page 26


 1395 0770 1C       		.uleb128 0x1c
 1396 0771 3C000000 		.4byte	.LVL45
 1397 0775 9F070000 		.4byte	0x79f
 1398 0779 1B       		.uleb128 0x1b
 1399 077a 01       		.uleb128 0x1
 1400 077b 50       		.byte	0x50
 1401 077c 05       		.uleb128 0x5
 1402 077d 03       		.byte	0x3
 1403 077e 68000000 		.4byte	.LC6
 1404 0782 00       		.byte	0
 1405 0783 00       		.byte	0
 1406 0784 1D       		.uleb128 0x1d
 1407 0785 E1030000 		.4byte	.LASF71
 1408 0789 08       		.byte	0x8
 1409 078a 9806     		.2byte	0x698
 1410 078c F8000000 		.4byte	0xf8
 1411 0790 1E       		.uleb128 0x1e
 1412 0791 5A020000 		.4byte	.LASF61
 1413 0795 05       		.byte	0x5
 1414 0796 D101     		.2byte	0x1d1
 1415 0798 1F       		.uleb128 0x1f
 1416 0799 F8010000 		.4byte	.LASF62
 1417 079d 07       		.byte	0x7
 1418 079e E7       		.byte	0xe7
 1419 079f 20       		.uleb128 0x20
 1420 07a0 84010000 		.4byte	.LASF63
 1421 07a4 07       		.byte	0x7
 1422 07a5 F6       		.byte	0xf6
 1423 07a6 B0070000 		.4byte	0x7b0
 1424 07aa 10       		.uleb128 0x10
 1425 07ab D6000000 		.4byte	0xd6
 1426 07af 00       		.byte	0
 1427 07b0 21       		.uleb128 0x21
 1428 07b1 6C010000 		.4byte	.LASF64
 1429 07b5 05       		.byte	0x5
 1430 07b6 D201     		.2byte	0x1d2
 1431 07b8 C2070000 		.4byte	0x7c2
 1432 07bc 10       		.uleb128 0x10
 1433 07bd 99010000 		.4byte	0x199
 1434 07c1 00       		.byte	0
 1435 07c2 1F       		.uleb128 0x1f
 1436 07c3 C9010000 		.4byte	.LASF65
 1437 07c7 07       		.byte	0x7
 1438 07c8 E8       		.byte	0xe8
 1439 07c9 21       		.uleb128 0x21
 1440 07ca 05000000 		.4byte	.LASF66
 1441 07ce 05       		.byte	0x5
 1442 07cf D301     		.2byte	0x1d3
 1443 07d1 DB070000 		.4byte	0x7db
 1444 07d5 10       		.uleb128 0x10
 1445 07d6 99010000 		.4byte	0x199
 1446 07da 00       		.byte	0
 1447 07db 21       		.uleb128 0x21
 1448 07dc B2010000 		.4byte	.LASF67
 1449 07e0 05       		.byte	0x5
 1450 07e1 D401     		.2byte	0x1d4
 1451 07e3 F7070000 		.4byte	0x7f7
ARM GAS  /tmp/ccLOk4hM.s 			page 27


 1452 07e7 10       		.uleb128 0x10
 1453 07e8 99010000 		.4byte	0x199
 1454 07ec 10       		.uleb128 0x10
 1455 07ed D5020000 		.4byte	0x2d5
 1456 07f1 10       		.uleb128 0x10
 1457 07f2 E1020000 		.4byte	0x2e1
 1458 07f6 00       		.byte	0
 1459 07f7 22       		.uleb128 0x22
 1460 07f8 45000000 		.4byte	.LASF72
 1461 07fc 05       		.byte	0x5
 1462 07fd D701     		.2byte	0x1d7
 1463 07ff 10       		.uleb128 0x10
 1464 0800 99010000 		.4byte	0x199
 1465 0804 10       		.uleb128 0x10
 1466 0805 D5020000 		.4byte	0x2d5
 1467 0809 00       		.byte	0
 1468 080a 00       		.byte	0
 1469              		.section	.debug_abbrev,"",%progbits
 1470              	.Ldebug_abbrev0:
 1471 0000 01       		.uleb128 0x1
 1472 0001 11       		.uleb128 0x11
 1473 0002 01       		.byte	0x1
 1474 0003 25       		.uleb128 0x25
 1475 0004 0E       		.uleb128 0xe
 1476 0005 13       		.uleb128 0x13
 1477 0006 0B       		.uleb128 0xb
 1478 0007 03       		.uleb128 0x3
 1479 0008 0E       		.uleb128 0xe
 1480 0009 1B       		.uleb128 0x1b
 1481 000a 0E       		.uleb128 0xe
 1482 000b 55       		.uleb128 0x55
 1483 000c 17       		.uleb128 0x17
 1484 000d 11       		.uleb128 0x11
 1485 000e 01       		.uleb128 0x1
 1486 000f 10       		.uleb128 0x10
 1487 0010 17       		.uleb128 0x17
 1488 0011 00       		.byte	0
 1489 0012 00       		.byte	0
 1490 0013 02       		.uleb128 0x2
 1491 0014 24       		.uleb128 0x24
 1492 0015 00       		.byte	0
 1493 0016 0B       		.uleb128 0xb
 1494 0017 0B       		.uleb128 0xb
 1495 0018 3E       		.uleb128 0x3e
 1496 0019 0B       		.uleb128 0xb
 1497 001a 03       		.uleb128 0x3
 1498 001b 08       		.uleb128 0x8
 1499 001c 00       		.byte	0
 1500 001d 00       		.byte	0
 1501 001e 03       		.uleb128 0x3
 1502 001f 24       		.uleb128 0x24
 1503 0020 00       		.byte	0
 1504 0021 0B       		.uleb128 0xb
 1505 0022 0B       		.uleb128 0xb
 1506 0023 3E       		.uleb128 0x3e
 1507 0024 0B       		.uleb128 0xb
 1508 0025 03       		.uleb128 0x3
ARM GAS  /tmp/ccLOk4hM.s 			page 28


 1509 0026 0E       		.uleb128 0xe
 1510 0027 00       		.byte	0
 1511 0028 00       		.byte	0
 1512 0029 04       		.uleb128 0x4
 1513 002a 16       		.uleb128 0x16
 1514 002b 00       		.byte	0
 1515 002c 03       		.uleb128 0x3
 1516 002d 0E       		.uleb128 0xe
 1517 002e 3A       		.uleb128 0x3a
 1518 002f 0B       		.uleb128 0xb
 1519 0030 3B       		.uleb128 0x3b
 1520 0031 0B       		.uleb128 0xb
 1521 0032 49       		.uleb128 0x49
 1522 0033 13       		.uleb128 0x13
 1523 0034 00       		.byte	0
 1524 0035 00       		.byte	0
 1525 0036 05       		.uleb128 0x5
 1526 0037 35       		.uleb128 0x35
 1527 0038 00       		.byte	0
 1528 0039 49       		.uleb128 0x49
 1529 003a 13       		.uleb128 0x13
 1530 003b 00       		.byte	0
 1531 003c 00       		.byte	0
 1532 003d 06       		.uleb128 0x6
 1533 003e 0F       		.uleb128 0xf
 1534 003f 00       		.byte	0
 1535 0040 0B       		.uleb128 0xb
 1536 0041 0B       		.uleb128 0xb
 1537 0042 49       		.uleb128 0x49
 1538 0043 13       		.uleb128 0x13
 1539 0044 00       		.byte	0
 1540 0045 00       		.byte	0
 1541 0046 07       		.uleb128 0x7
 1542 0047 26       		.uleb128 0x26
 1543 0048 00       		.byte	0
 1544 0049 49       		.uleb128 0x49
 1545 004a 13       		.uleb128 0x13
 1546 004b 00       		.byte	0
 1547 004c 00       		.byte	0
 1548 004d 08       		.uleb128 0x8
 1549 004e 01       		.uleb128 0x1
 1550 004f 01       		.byte	0x1
 1551 0050 49       		.uleb128 0x49
 1552 0051 13       		.uleb128 0x13
 1553 0052 01       		.uleb128 0x1
 1554 0053 13       		.uleb128 0x13
 1555 0054 00       		.byte	0
 1556 0055 00       		.byte	0
 1557 0056 09       		.uleb128 0x9
 1558 0057 21       		.uleb128 0x21
 1559 0058 00       		.byte	0
 1560 0059 49       		.uleb128 0x49
 1561 005a 13       		.uleb128 0x13
 1562 005b 2F       		.uleb128 0x2f
 1563 005c 0B       		.uleb128 0xb
 1564 005d 00       		.byte	0
 1565 005e 00       		.byte	0
ARM GAS  /tmp/ccLOk4hM.s 			page 29


 1566 005f 0A       		.uleb128 0xa
 1567 0060 04       		.uleb128 0x4
 1568 0061 01       		.byte	0x1
 1569 0062 0B       		.uleb128 0xb
 1570 0063 0B       		.uleb128 0xb
 1571 0064 3A       		.uleb128 0x3a
 1572 0065 0B       		.uleb128 0xb
 1573 0066 3B       		.uleb128 0x3b
 1574 0067 0B       		.uleb128 0xb
 1575 0068 01       		.uleb128 0x1
 1576 0069 13       		.uleb128 0x13
 1577 006a 00       		.byte	0
 1578 006b 00       		.byte	0
 1579 006c 0B       		.uleb128 0xb
 1580 006d 28       		.uleb128 0x28
 1581 006e 00       		.byte	0
 1582 006f 03       		.uleb128 0x3
 1583 0070 0E       		.uleb128 0xe
 1584 0071 1C       		.uleb128 0x1c
 1585 0072 0D       		.uleb128 0xd
 1586 0073 00       		.byte	0
 1587 0074 00       		.byte	0
 1588 0075 0C       		.uleb128 0xc
 1589 0076 13       		.uleb128 0x13
 1590 0077 01       		.byte	0x1
 1591 0078 03       		.uleb128 0x3
 1592 0079 0E       		.uleb128 0xe
 1593 007a 0B       		.uleb128 0xb
 1594 007b 0B       		.uleb128 0xb
 1595 007c 3A       		.uleb128 0x3a
 1596 007d 0B       		.uleb128 0xb
 1597 007e 3B       		.uleb128 0x3b
 1598 007f 05       		.uleb128 0x5
 1599 0080 01       		.uleb128 0x1
 1600 0081 13       		.uleb128 0x13
 1601 0082 00       		.byte	0
 1602 0083 00       		.byte	0
 1603 0084 0D       		.uleb128 0xd
 1604 0085 0D       		.uleb128 0xd
 1605 0086 00       		.byte	0
 1606 0087 03       		.uleb128 0x3
 1607 0088 0E       		.uleb128 0xe
 1608 0089 3A       		.uleb128 0x3a
 1609 008a 0B       		.uleb128 0xb
 1610 008b 3B       		.uleb128 0x3b
 1611 008c 05       		.uleb128 0x5
 1612 008d 49       		.uleb128 0x49
 1613 008e 13       		.uleb128 0x13
 1614 008f 38       		.uleb128 0x38
 1615 0090 0B       		.uleb128 0xb
 1616 0091 00       		.byte	0
 1617 0092 00       		.byte	0
 1618 0093 0E       		.uleb128 0xe
 1619 0094 0D       		.uleb128 0xd
 1620 0095 00       		.byte	0
 1621 0096 03       		.uleb128 0x3
 1622 0097 08       		.uleb128 0x8
ARM GAS  /tmp/ccLOk4hM.s 			page 30


 1623 0098 3A       		.uleb128 0x3a
 1624 0099 0B       		.uleb128 0xb
 1625 009a 3B       		.uleb128 0x3b
 1626 009b 05       		.uleb128 0x5
 1627 009c 49       		.uleb128 0x49
 1628 009d 13       		.uleb128 0x13
 1629 009e 38       		.uleb128 0x38
 1630 009f 0B       		.uleb128 0xb
 1631 00a0 00       		.byte	0
 1632 00a1 00       		.byte	0
 1633 00a2 0F       		.uleb128 0xf
 1634 00a3 15       		.uleb128 0x15
 1635 00a4 01       		.byte	0x1
 1636 00a5 27       		.uleb128 0x27
 1637 00a6 19       		.uleb128 0x19
 1638 00a7 01       		.uleb128 0x1
 1639 00a8 13       		.uleb128 0x13
 1640 00a9 00       		.byte	0
 1641 00aa 00       		.byte	0
 1642 00ab 10       		.uleb128 0x10
 1643 00ac 05       		.uleb128 0x5
 1644 00ad 00       		.byte	0
 1645 00ae 49       		.uleb128 0x49
 1646 00af 13       		.uleb128 0x13
 1647 00b0 00       		.byte	0
 1648 00b1 00       		.byte	0
 1649 00b2 11       		.uleb128 0x11
 1650 00b3 13       		.uleb128 0x13
 1651 00b4 01       		.byte	0x1
 1652 00b5 0B       		.uleb128 0xb
 1653 00b6 0B       		.uleb128 0xb
 1654 00b7 3A       		.uleb128 0x3a
 1655 00b8 0B       		.uleb128 0xb
 1656 00b9 3B       		.uleb128 0x3b
 1657 00ba 05       		.uleb128 0x5
 1658 00bb 01       		.uleb128 0x1
 1659 00bc 13       		.uleb128 0x13
 1660 00bd 00       		.byte	0
 1661 00be 00       		.byte	0
 1662 00bf 12       		.uleb128 0x12
 1663 00c0 16       		.uleb128 0x16
 1664 00c1 00       		.byte	0
 1665 00c2 03       		.uleb128 0x3
 1666 00c3 0E       		.uleb128 0xe
 1667 00c4 3A       		.uleb128 0x3a
 1668 00c5 0B       		.uleb128 0xb
 1669 00c6 3B       		.uleb128 0x3b
 1670 00c7 05       		.uleb128 0x5
 1671 00c8 49       		.uleb128 0x49
 1672 00c9 13       		.uleb128 0x13
 1673 00ca 00       		.byte	0
 1674 00cb 00       		.byte	0
 1675 00cc 13       		.uleb128 0x13
 1676 00cd 2E       		.uleb128 0x2e
 1677 00ce 01       		.byte	0x1
 1678 00cf 3F       		.uleb128 0x3f
 1679 00d0 19       		.uleb128 0x19
ARM GAS  /tmp/ccLOk4hM.s 			page 31


 1680 00d1 03       		.uleb128 0x3
 1681 00d2 0E       		.uleb128 0xe
 1682 00d3 3A       		.uleb128 0x3a
 1683 00d4 0B       		.uleb128 0xb
 1684 00d5 3B       		.uleb128 0x3b
 1685 00d6 0B       		.uleb128 0xb
 1686 00d7 27       		.uleb128 0x27
 1687 00d8 19       		.uleb128 0x19
 1688 00d9 11       		.uleb128 0x11
 1689 00da 01       		.uleb128 0x1
 1690 00db 12       		.uleb128 0x12
 1691 00dc 06       		.uleb128 0x6
 1692 00dd 40       		.uleb128 0x40
 1693 00de 18       		.uleb128 0x18
 1694 00df 9742     		.uleb128 0x2117
 1695 00e1 19       		.uleb128 0x19
 1696 00e2 01       		.uleb128 0x1
 1697 00e3 13       		.uleb128 0x13
 1698 00e4 00       		.byte	0
 1699 00e5 00       		.byte	0
 1700 00e6 14       		.uleb128 0x14
 1701 00e7 898201   		.uleb128 0x4109
 1702 00ea 00       		.byte	0
 1703 00eb 11       		.uleb128 0x11
 1704 00ec 01       		.uleb128 0x1
 1705 00ed 9542     		.uleb128 0x2115
 1706 00ef 19       		.uleb128 0x19
 1707 00f0 31       		.uleb128 0x31
 1708 00f1 13       		.uleb128 0x13
 1709 00f2 00       		.byte	0
 1710 00f3 00       		.byte	0
 1711 00f4 15       		.uleb128 0x15
 1712 00f5 05       		.uleb128 0x5
 1713 00f6 00       		.byte	0
 1714 00f7 03       		.uleb128 0x3
 1715 00f8 0E       		.uleb128 0xe
 1716 00f9 3A       		.uleb128 0x3a
 1717 00fa 0B       		.uleb128 0xb
 1718 00fb 3B       		.uleb128 0x3b
 1719 00fc 0B       		.uleb128 0xb
 1720 00fd 49       		.uleb128 0x49
 1721 00fe 13       		.uleb128 0x13
 1722 00ff 02       		.uleb128 0x2
 1723 0100 18       		.uleb128 0x18
 1724 0101 00       		.byte	0
 1725 0102 00       		.byte	0
 1726 0103 16       		.uleb128 0x16
 1727 0104 05       		.uleb128 0x5
 1728 0105 00       		.byte	0
 1729 0106 03       		.uleb128 0x3
 1730 0107 0E       		.uleb128 0xe
 1731 0108 3A       		.uleb128 0x3a
 1732 0109 0B       		.uleb128 0xb
 1733 010a 3B       		.uleb128 0x3b
 1734 010b 0B       		.uleb128 0xb
 1735 010c 49       		.uleb128 0x49
 1736 010d 13       		.uleb128 0x13
ARM GAS  /tmp/ccLOk4hM.s 			page 32


 1737 010e 02       		.uleb128 0x2
 1738 010f 17       		.uleb128 0x17
 1739 0110 00       		.byte	0
 1740 0111 00       		.byte	0
 1741 0112 17       		.uleb128 0x17
 1742 0113 0B       		.uleb128 0xb
 1743 0114 01       		.byte	0x1
 1744 0115 11       		.uleb128 0x11
 1745 0116 01       		.uleb128 0x1
 1746 0117 12       		.uleb128 0x12
 1747 0118 06       		.uleb128 0x6
 1748 0119 01       		.uleb128 0x1
 1749 011a 13       		.uleb128 0x13
 1750 011b 00       		.byte	0
 1751 011c 00       		.byte	0
 1752 011d 18       		.uleb128 0x18
 1753 011e 34       		.uleb128 0x34
 1754 011f 00       		.byte	0
 1755 0120 03       		.uleb128 0x3
 1756 0121 08       		.uleb128 0x8
 1757 0122 3A       		.uleb128 0x3a
 1758 0123 0B       		.uleb128 0xb
 1759 0124 3B       		.uleb128 0x3b
 1760 0125 0B       		.uleb128 0xb
 1761 0126 49       		.uleb128 0x49
 1762 0127 13       		.uleb128 0x13
 1763 0128 02       		.uleb128 0x2
 1764 0129 18       		.uleb128 0x18
 1765 012a 00       		.byte	0
 1766 012b 00       		.byte	0
 1767 012c 19       		.uleb128 0x19
 1768 012d 898201   		.uleb128 0x4109
 1769 0130 00       		.byte	0
 1770 0131 11       		.uleb128 0x11
 1771 0132 01       		.uleb128 0x1
 1772 0133 31       		.uleb128 0x31
 1773 0134 13       		.uleb128 0x13
 1774 0135 00       		.byte	0
 1775 0136 00       		.byte	0
 1776 0137 1A       		.uleb128 0x1a
 1777 0138 898201   		.uleb128 0x4109
 1778 013b 01       		.byte	0x1
 1779 013c 11       		.uleb128 0x11
 1780 013d 01       		.uleb128 0x1
 1781 013e 31       		.uleb128 0x31
 1782 013f 13       		.uleb128 0x13
 1783 0140 01       		.uleb128 0x1
 1784 0141 13       		.uleb128 0x13
 1785 0142 00       		.byte	0
 1786 0143 00       		.byte	0
 1787 0144 1B       		.uleb128 0x1b
 1788 0145 8A8201   		.uleb128 0x410a
 1789 0148 00       		.byte	0
 1790 0149 02       		.uleb128 0x2
 1791 014a 18       		.uleb128 0x18
 1792 014b 9142     		.uleb128 0x2111
 1793 014d 18       		.uleb128 0x18
ARM GAS  /tmp/ccLOk4hM.s 			page 33


 1794 014e 00       		.byte	0
 1795 014f 00       		.byte	0
 1796 0150 1C       		.uleb128 0x1c
 1797 0151 898201   		.uleb128 0x4109
 1798 0154 01       		.byte	0x1
 1799 0155 11       		.uleb128 0x11
 1800 0156 01       		.uleb128 0x1
 1801 0157 31       		.uleb128 0x31
 1802 0158 13       		.uleb128 0x13
 1803 0159 00       		.byte	0
 1804 015a 00       		.byte	0
 1805 015b 1D       		.uleb128 0x1d
 1806 015c 34       		.uleb128 0x34
 1807 015d 00       		.byte	0
 1808 015e 03       		.uleb128 0x3
 1809 015f 0E       		.uleb128 0xe
 1810 0160 3A       		.uleb128 0x3a
 1811 0161 0B       		.uleb128 0xb
 1812 0162 3B       		.uleb128 0x3b
 1813 0163 05       		.uleb128 0x5
 1814 0164 49       		.uleb128 0x49
 1815 0165 13       		.uleb128 0x13
 1816 0166 3F       		.uleb128 0x3f
 1817 0167 19       		.uleb128 0x19
 1818 0168 3C       		.uleb128 0x3c
 1819 0169 19       		.uleb128 0x19
 1820 016a 00       		.byte	0
 1821 016b 00       		.byte	0
 1822 016c 1E       		.uleb128 0x1e
 1823 016d 2E       		.uleb128 0x2e
 1824 016e 00       		.byte	0
 1825 016f 3F       		.uleb128 0x3f
 1826 0170 19       		.uleb128 0x19
 1827 0171 03       		.uleb128 0x3
 1828 0172 0E       		.uleb128 0xe
 1829 0173 3A       		.uleb128 0x3a
 1830 0174 0B       		.uleb128 0xb
 1831 0175 3B       		.uleb128 0x3b
 1832 0176 05       		.uleb128 0x5
 1833 0177 27       		.uleb128 0x27
 1834 0178 19       		.uleb128 0x19
 1835 0179 3C       		.uleb128 0x3c
 1836 017a 19       		.uleb128 0x19
 1837 017b 00       		.byte	0
 1838 017c 00       		.byte	0
 1839 017d 1F       		.uleb128 0x1f
 1840 017e 2E       		.uleb128 0x2e
 1841 017f 00       		.byte	0
 1842 0180 3F       		.uleb128 0x3f
 1843 0181 19       		.uleb128 0x19
 1844 0182 03       		.uleb128 0x3
 1845 0183 0E       		.uleb128 0xe
 1846 0184 3A       		.uleb128 0x3a
 1847 0185 0B       		.uleb128 0xb
 1848 0186 3B       		.uleb128 0x3b
 1849 0187 0B       		.uleb128 0xb
 1850 0188 27       		.uleb128 0x27
ARM GAS  /tmp/ccLOk4hM.s 			page 34


 1851 0189 19       		.uleb128 0x19
 1852 018a 3C       		.uleb128 0x3c
 1853 018b 19       		.uleb128 0x19
 1854 018c 00       		.byte	0
 1855 018d 00       		.byte	0
 1856 018e 20       		.uleb128 0x20
 1857 018f 2E       		.uleb128 0x2e
 1858 0190 01       		.byte	0x1
 1859 0191 3F       		.uleb128 0x3f
 1860 0192 19       		.uleb128 0x19
 1861 0193 03       		.uleb128 0x3
 1862 0194 0E       		.uleb128 0xe
 1863 0195 3A       		.uleb128 0x3a
 1864 0196 0B       		.uleb128 0xb
 1865 0197 3B       		.uleb128 0x3b
 1866 0198 0B       		.uleb128 0xb
 1867 0199 27       		.uleb128 0x27
 1868 019a 19       		.uleb128 0x19
 1869 019b 3C       		.uleb128 0x3c
 1870 019c 19       		.uleb128 0x19
 1871 019d 01       		.uleb128 0x1
 1872 019e 13       		.uleb128 0x13
 1873 019f 00       		.byte	0
 1874 01a0 00       		.byte	0
 1875 01a1 21       		.uleb128 0x21
 1876 01a2 2E       		.uleb128 0x2e
 1877 01a3 01       		.byte	0x1
 1878 01a4 3F       		.uleb128 0x3f
 1879 01a5 19       		.uleb128 0x19
 1880 01a6 03       		.uleb128 0x3
 1881 01a7 0E       		.uleb128 0xe
 1882 01a8 3A       		.uleb128 0x3a
 1883 01a9 0B       		.uleb128 0xb
 1884 01aa 3B       		.uleb128 0x3b
 1885 01ab 05       		.uleb128 0x5
 1886 01ac 27       		.uleb128 0x27
 1887 01ad 19       		.uleb128 0x19
 1888 01ae 3C       		.uleb128 0x3c
 1889 01af 19       		.uleb128 0x19
 1890 01b0 01       		.uleb128 0x1
 1891 01b1 13       		.uleb128 0x13
 1892 01b2 00       		.byte	0
 1893 01b3 00       		.byte	0
 1894 01b4 22       		.uleb128 0x22
 1895 01b5 2E       		.uleb128 0x2e
 1896 01b6 01       		.byte	0x1
 1897 01b7 3F       		.uleb128 0x3f
 1898 01b8 19       		.uleb128 0x19
 1899 01b9 03       		.uleb128 0x3
 1900 01ba 0E       		.uleb128 0xe
 1901 01bb 3A       		.uleb128 0x3a
 1902 01bc 0B       		.uleb128 0xb
 1903 01bd 3B       		.uleb128 0x3b
 1904 01be 05       		.uleb128 0x5
 1905 01bf 27       		.uleb128 0x27
 1906 01c0 19       		.uleb128 0x19
 1907 01c1 3C       		.uleb128 0x3c
ARM GAS  /tmp/ccLOk4hM.s 			page 35


 1908 01c2 19       		.uleb128 0x19
 1909 01c3 00       		.byte	0
 1910 01c4 00       		.byte	0
 1911 01c5 00       		.byte	0
 1912              		.section	.debug_loc,"",%progbits
 1913              	.Ldebug_loc0:
 1914              	.LLST0:
 1915 0000 00000000 		.4byte	.LVL2
 1916 0004 0A000000 		.4byte	.LVL3
 1917 0008 0100     		.2byte	0x1
 1918 000a 50       		.byte	0x50
 1919 000b 0A000000 		.4byte	.LVL3
 1920 000f 3E000000 		.4byte	.LVL8
 1921 0013 0100     		.2byte	0x1
 1922 0015 54       		.byte	0x54
 1923 0016 3E000000 		.4byte	.LVL8
 1924 001a 40000000 		.4byte	.LVL9
 1925 001e 0100     		.2byte	0x1
 1926 0020 50       		.byte	0x50
 1927 0021 40000000 		.4byte	.LVL9
 1928 0025 50000000 		.4byte	.LFE120
 1929 0029 0100     		.2byte	0x1
 1930 002b 54       		.byte	0x54
 1931 002c 00000000 		.4byte	0
 1932 0030 00000000 		.4byte	0
 1933              	.LLST1:
 1934 0034 00000000 		.4byte	.LVL2
 1935 0038 0A000000 		.4byte	.LVL3
 1936 003c 0100     		.2byte	0x1
 1937 003e 51       		.byte	0x51
 1938 003f 0A000000 		.4byte	.LVL3
 1939 0043 3E000000 		.4byte	.LVL8
 1940 0047 0100     		.2byte	0x1
 1941 0049 55       		.byte	0x55
 1942 004a 3E000000 		.4byte	.LVL8
 1943 004e 43000000 		.4byte	.LVL10-1
 1944 0052 0100     		.2byte	0x1
 1945 0054 51       		.byte	0x51
 1946 0055 43000000 		.4byte	.LVL10-1
 1947 0059 50000000 		.4byte	.LFE120
 1948 005d 0100     		.2byte	0x1
 1949 005f 55       		.byte	0x55
 1950 0060 00000000 		.4byte	0
 1951 0064 00000000 		.4byte	0
 1952              	.LLST2:
 1953 0068 00000000 		.4byte	.LVL11
 1954 006c 06000000 		.4byte	.LVL12
 1955 0070 0100     		.2byte	0x1
 1956 0072 50       		.byte	0x50
 1957 0073 06000000 		.4byte	.LVL12
 1958 0077 34000000 		.4byte	.LVL17
 1959 007b 0100     		.2byte	0x1
 1960 007d 54       		.byte	0x54
 1961 007e 34000000 		.4byte	.LVL17
 1962 0082 36000000 		.4byte	.LVL18
 1963 0086 0100     		.2byte	0x1
 1964 0088 50       		.byte	0x50
ARM GAS  /tmp/ccLOk4hM.s 			page 36


 1965 0089 36000000 		.4byte	.LVL18
 1966 008d 44000000 		.4byte	.LFE121
 1967 0091 0100     		.2byte	0x1
 1968 0093 54       		.byte	0x54
 1969 0094 00000000 		.4byte	0
 1970 0098 00000000 		.4byte	0
 1971              	.LLST3:
 1972 009c 00000000 		.4byte	.LVL20
 1973 00a0 08000000 		.4byte	.LVL21
 1974 00a4 0100     		.2byte	0x1
 1975 00a6 50       		.byte	0x50
 1976 00a7 08000000 		.4byte	.LVL21
 1977 00ab 34000000 		.4byte	.LVL25
 1978 00af 0100     		.2byte	0x1
 1979 00b1 54       		.byte	0x54
 1980 00b2 34000000 		.4byte	.LVL25
 1981 00b6 36000000 		.4byte	.LVL26
 1982 00ba 0100     		.2byte	0x1
 1983 00bc 50       		.byte	0x50
 1984 00bd 36000000 		.4byte	.LVL26
 1985 00c1 44000000 		.4byte	.LFE122
 1986 00c5 0100     		.2byte	0x1
 1987 00c7 54       		.byte	0x54
 1988 00c8 00000000 		.4byte	0
 1989 00cc 00000000 		.4byte	0
 1990              	.LLST4:
 1991 00d0 00000000 		.4byte	.LVL20
 1992 00d4 08000000 		.4byte	.LVL21
 1993 00d8 0100     		.2byte	0x1
 1994 00da 51       		.byte	0x51
 1995 00db 08000000 		.4byte	.LVL21
 1996 00df 34000000 		.4byte	.LVL25
 1997 00e3 0400     		.2byte	0x4
 1998 00e5 F3       		.byte	0xf3
 1999 00e6 01       		.uleb128 0x1
 2000 00e7 51       		.byte	0x51
 2001 00e8 9F       		.byte	0x9f
 2002 00e9 34000000 		.4byte	.LVL25
 2003 00ed 39000000 		.4byte	.LVL27-1
 2004 00f1 0100     		.2byte	0x1
 2005 00f3 51       		.byte	0x51
 2006 00f4 39000000 		.4byte	.LVL27-1
 2007 00f8 44000000 		.4byte	.LFE122
 2008 00fc 0400     		.2byte	0x4
 2009 00fe F3       		.byte	0xf3
 2010 00ff 01       		.uleb128 0x1
 2011 0100 51       		.byte	0x51
 2012 0101 9F       		.byte	0x9f
 2013 0102 00000000 		.4byte	0
 2014 0106 00000000 		.4byte	0
 2015              	.LLST5:
 2016 010a 00000000 		.4byte	.LVL28
 2017 010e 0E000000 		.4byte	.LVL29
 2018 0112 0100     		.2byte	0x1
 2019 0114 50       		.byte	0x50
 2020 0115 0E000000 		.4byte	.LVL29
 2021 0119 3A000000 		.4byte	.LVL34
ARM GAS  /tmp/ccLOk4hM.s 			page 37


 2022 011d 0100     		.2byte	0x1
 2023 011f 54       		.byte	0x54
 2024 0120 3A000000 		.4byte	.LVL34
 2025 0124 3C000000 		.4byte	.LVL35
 2026 0128 0100     		.2byte	0x1
 2027 012a 50       		.byte	0x50
 2028 012b 3C000000 		.4byte	.LVL35
 2029 012f 4C000000 		.4byte	.LFE123
 2030 0133 0100     		.2byte	0x1
 2031 0135 54       		.byte	0x54
 2032 0136 00000000 		.4byte	0
 2033 013a 00000000 		.4byte	0
 2034              	.LLST6:
 2035 013e 00000000 		.4byte	.LVL28
 2036 0142 0E000000 		.4byte	.LVL29
 2037 0146 0100     		.2byte	0x1
 2038 0148 51       		.byte	0x51
 2039 0149 0E000000 		.4byte	.LVL29
 2040 014d 3A000000 		.4byte	.LVL34
 2041 0151 0400     		.2byte	0x4
 2042 0153 F3       		.byte	0xf3
 2043 0154 01       		.uleb128 0x1
 2044 0155 51       		.byte	0x51
 2045 0156 9F       		.byte	0x9f
 2046 0157 3A000000 		.4byte	.LVL34
 2047 015b 3F000000 		.4byte	.LVL36-1
 2048 015f 0100     		.2byte	0x1
 2049 0161 51       		.byte	0x51
 2050 0162 3F000000 		.4byte	.LVL36-1
 2051 0166 4C000000 		.4byte	.LFE123
 2052 016a 0400     		.2byte	0x4
 2053 016c F3       		.byte	0xf3
 2054 016d 01       		.uleb128 0x1
 2055 016e 51       		.byte	0x51
 2056 016f 9F       		.byte	0x9f
 2057 0170 00000000 		.4byte	0
 2058 0174 00000000 		.4byte	0
 2059              	.LLST7:
 2060 0178 00000000 		.4byte	.LVL28
 2061 017c 0E000000 		.4byte	.LVL29
 2062 0180 0100     		.2byte	0x1
 2063 0182 52       		.byte	0x52
 2064 0183 0E000000 		.4byte	.LVL29
 2065 0187 3A000000 		.4byte	.LVL34
 2066 018b 0400     		.2byte	0x4
 2067 018d F3       		.byte	0xf3
 2068 018e 01       		.uleb128 0x1
 2069 018f 52       		.byte	0x52
 2070 0190 9F       		.byte	0x9f
 2071 0191 3A000000 		.4byte	.LVL34
 2072 0195 3F000000 		.4byte	.LVL36-1
 2073 0199 0100     		.2byte	0x1
 2074 019b 52       		.byte	0x52
 2075 019c 3F000000 		.4byte	.LVL36-1
 2076 01a0 4C000000 		.4byte	.LFE123
 2077 01a4 0400     		.2byte	0x4
 2078 01a6 F3       		.byte	0xf3
ARM GAS  /tmp/ccLOk4hM.s 			page 38


 2079 01a7 01       		.uleb128 0x1
 2080 01a8 52       		.byte	0x52
 2081 01a9 9F       		.byte	0x9f
 2082 01aa 00000000 		.4byte	0
 2083 01ae 00000000 		.4byte	0
 2084              	.LLST8:
 2085 01b2 00000000 		.4byte	.LVL37
 2086 01b6 0C000000 		.4byte	.LVL38
 2087 01ba 0100     		.2byte	0x1
 2088 01bc 50       		.byte	0x50
 2089 01bd 0C000000 		.4byte	.LVL38
 2090 01c1 36000000 		.4byte	.LVL43
 2091 01c5 0100     		.2byte	0x1
 2092 01c7 54       		.byte	0x54
 2093 01c8 36000000 		.4byte	.LVL43
 2094 01cc 38000000 		.4byte	.LVL44
 2095 01d0 0100     		.2byte	0x1
 2096 01d2 50       		.byte	0x50
 2097 01d3 38000000 		.4byte	.LVL44
 2098 01d7 48000000 		.4byte	.LFE124
 2099 01db 0100     		.2byte	0x1
 2100 01dd 54       		.byte	0x54
 2101 01de 00000000 		.4byte	0
 2102 01e2 00000000 		.4byte	0
 2103              	.LLST9:
 2104 01e6 00000000 		.4byte	.LVL37
 2105 01ea 0C000000 		.4byte	.LVL38
 2106 01ee 0100     		.2byte	0x1
 2107 01f0 51       		.byte	0x51
 2108 01f1 0C000000 		.4byte	.LVL38
 2109 01f5 36000000 		.4byte	.LVL43
 2110 01f9 0400     		.2byte	0x4
 2111 01fb F3       		.byte	0xf3
 2112 01fc 01       		.uleb128 0x1
 2113 01fd 51       		.byte	0x51
 2114 01fe 9F       		.byte	0x9f
 2115 01ff 36000000 		.4byte	.LVL43
 2116 0203 3B000000 		.4byte	.LVL45-1
 2117 0207 0100     		.2byte	0x1
 2118 0209 51       		.byte	0x51
 2119 020a 3B000000 		.4byte	.LVL45-1
 2120 020e 48000000 		.4byte	.LFE124
 2121 0212 0400     		.2byte	0x4
 2122 0214 F3       		.byte	0xf3
 2123 0215 01       		.uleb128 0x1
 2124 0216 51       		.byte	0x51
 2125 0217 9F       		.byte	0x9f
 2126 0218 00000000 		.4byte	0
 2127 021c 00000000 		.4byte	0
 2128              		.section	.debug_aranges,"",%progbits
 2129 0000 4C000000 		.4byte	0x4c
 2130 0004 0200     		.2byte	0x2
 2131 0006 00000000 		.4byte	.Ldebug_info0
 2132 000a 04       		.byte	0x4
 2133 000b 00       		.byte	0
 2134 000c 0000     		.2byte	0
 2135 000e 0000     		.2byte	0
ARM GAS  /tmp/ccLOk4hM.s 			page 39


 2136 0010 00000000 		.4byte	.LFB118
 2137 0014 04000000 		.4byte	.LFE118-.LFB118
 2138 0018 00000000 		.4byte	.LFB119
 2139 001c 0A000000 		.4byte	.LFE119-.LFB119
 2140 0020 00000000 		.4byte	.LFB120
 2141 0024 50000000 		.4byte	.LFE120-.LFB120
 2142 0028 00000000 		.4byte	.LFB121
 2143 002c 44000000 		.4byte	.LFE121-.LFB121
 2144 0030 00000000 		.4byte	.LFB122
 2145 0034 44000000 		.4byte	.LFE122-.LFB122
 2146 0038 00000000 		.4byte	.LFB123
 2147 003c 4C000000 		.4byte	.LFE123-.LFB123
 2148 0040 00000000 		.4byte	.LFB124
 2149 0044 48000000 		.4byte	.LFE124-.LFB124
 2150 0048 00000000 		.4byte	0
 2151 004c 00000000 		.4byte	0
 2152              		.section	.debug_ranges,"",%progbits
 2153              	.Ldebug_ranges0:
 2154 0000 00000000 		.4byte	.LFB118
 2155 0004 04000000 		.4byte	.LFE118
 2156 0008 00000000 		.4byte	.LFB119
 2157 000c 0A000000 		.4byte	.LFE119
 2158 0010 00000000 		.4byte	.LFB120
 2159 0014 50000000 		.4byte	.LFE120
 2160 0018 00000000 		.4byte	.LFB121
 2161 001c 44000000 		.4byte	.LFE121
 2162 0020 00000000 		.4byte	.LFB122
 2163 0024 44000000 		.4byte	.LFE122
 2164 0028 00000000 		.4byte	.LFB123
 2165 002c 4C000000 		.4byte	.LFE123
 2166 0030 00000000 		.4byte	.LFB124
 2167 0034 48000000 		.4byte	.LFE124
 2168 0038 00000000 		.4byte	0
 2169 003c 00000000 		.4byte	0
 2170              		.section	.debug_line,"",%progbits
 2171              	.Ldebug_line0:
 2172 0000 5D020000 		.section	.debug_str,"MS",%progbits,1
 2172      02006501 
 2172      00000201 
 2172      FB0E0D00 
 2172      01010101 
 2173              	.LASF34:
 2174 0000 43434552 		.ascii	"CCER\000"
 2174      00
 2175              	.LASF66:
 2176 0005 70776D5F 		.ascii	"pwm_lld_stop\000"
 2176      6C6C645F 
 2176      73746F70 
 2176      00
 2177              	.LASF36:
 2178 0012 444D4152 		.ascii	"DMAR\000"
 2178      00
 2179              	.LASF25:
 2180 0017 73746174 		.ascii	"state\000"
 2180      6500
 2181              	.LASF33:
 2182 001d 43434D52 		.ascii	"CCMR2\000"
ARM GAS  /tmp/ccLOk4hM.s 			page 40


 2182      3200
 2183              	.LASF37:
 2184 0023 43434D52 		.ascii	"CCMR3\000"
 2184      3300
 2185              	.LASF3:
 2186 0029 73686F72 		.ascii	"short int\000"
 2186      7420696E 
 2186      7400
 2187              	.LASF43:
 2188 0033 70776D63 		.ascii	"pwmcnt_t\000"
 2188      6E745F74 
 2188      00
 2189              	.LASF18:
 2190 003c 73697A65 		.ascii	"sizetype\000"
 2190      74797065 
 2190      00
 2191              	.LASF72:
 2192 0045 70776D5F 		.ascii	"pwm_lld_disable_channel\000"
 2192      6C6C645F 
 2192      64697361 
 2192      626C655F 
 2192      6368616E 
 2193              	.LASF42:
 2194 005d 70776D63 		.ascii	"pwmchannel_t\000"
 2194      68616E6E 
 2194      656C5F74 
 2194      00
 2195              	.LASF9:
 2196 006a 5F5F7569 		.ascii	"__uint32_t\000"
 2196      6E743332 
 2196      5F7400
 2197              	.LASF44:
 2198 0075 6D6F6465 		.ascii	"mode\000"
 2198      00
 2199              	.LASF5:
 2200 007a 5F5F7569 		.ascii	"__uint16_t\000"
 2200      6E743136 
 2200      5F7400
 2201              	.LASF48:
 2202 0085 6368616E 		.ascii	"channels\000"
 2202      6E656C73 
 2202      00
 2203              	.LASF26:
 2204 008e 636F6E66 		.ascii	"config\000"
 2204      696700
 2205              	.LASF52:
 2206 0095 70776D4F 		.ascii	"pwmObjectInit\000"
 2206      626A6563 
 2206      74496E69 
 2206      7400
 2207              	.LASF13:
 2208 00a3 75696E74 		.ascii	"uint8_t\000"
 2208      385F7400 
 2209              	.LASF70:
 2210 00ab 2F686F6D 		.ascii	"/home/namv1994/CFSD19/Christian STM32 code/STM32F4/"
 2210      652F6E61 
 2210      6D763139 
ARM GAS  /tmp/ccLOk4hM.s 			page 41


 2210      39342F43 
 2210      46534431 
 2211 00de 53544D33 		.ascii	"STM32F4/embedded/ChibiOS/nam-test-USB/USB_CDC\000"
 2211      3246342F 
 2211      656D6265 
 2211      64646564 
 2211      2F436869 
 2212              	.LASF57:
 2213 010c 70776D45 		.ascii	"pwmEnableChannel\000"
 2213      6E61626C 
 2213      65436861 
 2213      6E6E656C 
 2213      00
 2214              	.LASF59:
 2215 011d 77696474 		.ascii	"width\000"
 2215      6800
 2216              	.LASF53:
 2217 0123 70776D53 		.ascii	"pwmStart\000"
 2217      74617274 
 2217      00
 2218              	.LASF11:
 2219 012c 6C6F6E67 		.ascii	"long long int\000"
 2219      206C6F6E 
 2219      6720696E 
 2219      7400
 2220              	.LASF8:
 2221 013a 6C6F6E67 		.ascii	"long int\000"
 2221      20696E74 
 2221      00
 2222              	.LASF51:
 2223 0143 70776D49 		.ascii	"pwmInit\000"
 2223      6E697400 
 2224              	.LASF38:
 2225 014b 43435235 		.ascii	"CCR5\000"
 2225      00
 2226              	.LASF39:
 2227 0150 43435236 		.ascii	"CCR6\000"
 2227      00
 2228              	.LASF27:
 2229 0155 70657269 		.ascii	"period\000"
 2229      6F6400
 2230              	.LASF4:
 2231 015c 5F5F7569 		.ascii	"__uint8_t\000"
 2231      6E74385F 
 2231      7400
 2232              	.LASF32:
 2233 0166 43434D52 		.ascii	"CCMR1\000"
 2233      3100
 2234              	.LASF64:
 2235 016c 70776D5F 		.ascii	"pwm_lld_start\000"
 2235      6C6C645F 
 2235      73746172 
 2235      7400
 2236              	.LASF50:
 2237 017a 50574D43 		.ascii	"PWMConfig\000"
 2237      6F6E6669 
 2237      6700
ARM GAS  /tmp/ccLOk4hM.s 			page 42


 2238              	.LASF63:
 2239 0184 63684462 		.ascii	"chDbgPanic\000"
 2239      6750616E 
 2239      696300
 2240              	.LASF54:
 2241 018f 70776D70 		.ascii	"pwmp\000"
 2241      00
 2242              	.LASF30:
 2243 0194 534D4352 		.ascii	"SMCR\000"
 2243      00
 2244              	.LASF20:
 2245 0199 50574D5F 		.ascii	"PWM_UNINIT\000"
 2245      554E494E 
 2245      495400
 2246              	.LASF2:
 2247 01a4 756E7369 		.ascii	"unsigned char\000"
 2247      676E6564 
 2247      20636861 
 2247      7200
 2248              	.LASF67:
 2249 01b2 70776D5F 		.ascii	"pwm_lld_enable_channel\000"
 2249      6C6C645F 
 2249      656E6162 
 2249      6C655F63 
 2249      68616E6E 
 2250              	.LASF65:
 2251 01c9 6462675F 		.ascii	"dbg_check_unlock\000"
 2251      63686563 
 2251      6B5F756E 
 2251      6C6F636B 
 2251      00
 2252              	.LASF60:
 2253 01da 70776D44 		.ascii	"pwmDisableChannel\000"
 2253      69736162 
 2253      6C654368 
 2253      616E6E65 
 2253      6C00
 2254              	.LASF1:
 2255 01ec 7369676E 		.ascii	"signed char\000"
 2255      65642063 
 2255      68617200 
 2256              	.LASF62:
 2257 01f8 6462675F 		.ascii	"dbg_check_lock\000"
 2257      63686563 
 2257      6B5F6C6F 
 2257      636B00
 2258              	.LASF12:
 2259 0207 6C6F6E67 		.ascii	"long long unsigned int\000"
 2259      206C6F6E 
 2259      6720756E 
 2259      7369676E 
 2259      65642069 
 2260              	.LASF16:
 2261 021e 75696E74 		.ascii	"uint32_t\000"
 2261      33325F74 
 2261      00
 2262              	.LASF0:
ARM GAS  /tmp/ccLOk4hM.s 			page 43


 2263 0227 756E7369 		.ascii	"unsigned int\000"
 2263      676E6564 
 2263      20696E74 
 2263      00
 2264              	.LASF14:
 2265 0234 75696E74 		.ascii	"uint16_t\000"
 2265      31365F74 
 2265      00
 2266              	.LASF35:
 2267 023d 42445452 		.ascii	"BDTR\000"
 2267      00
 2268              	.LASF31:
 2269 0242 44494552 		.ascii	"DIER\000"
 2269      00
 2270              	.LASF6:
 2271 0247 73686F72 		.ascii	"short unsigned int\000"
 2271      7420756E 
 2271      7369676E 
 2271      65642069 
 2271      6E7400
 2272              	.LASF61:
 2273 025a 70776D5F 		.ascii	"pwm_lld_init\000"
 2273      6C6C645F 
 2273      696E6974 
 2273      00
 2274              	.LASF19:
 2275 0267 63686172 		.ascii	"char\000"
 2275      00
 2276              	.LASF40:
 2277 026c 73746D33 		.ascii	"stm32_tim_t\000"
 2277      325F7469 
 2277      6D5F7400 
 2278              	.LASF24:
 2279 0278 50574D44 		.ascii	"PWMDriver\000"
 2279      72697665 
 2279      7200
 2280              	.LASF15:
 2281 0282 696E7433 		.ascii	"int32_t\000"
 2281      325F7400 
 2282              	.LASF17:
 2283 028a 5F426F6F 		.ascii	"_Bool\000"
 2283      6C00
 2284              	.LASF69:
 2285 0290 43686962 		.ascii	"ChibiOS_2.6.5/os/hal/src/pwm.c\000"
 2285      694F535F 
 2285      322E362E 
 2285      352F6F73 
 2285      2F68616C 
 2286              	.LASF58:
 2287 02af 6368616E 		.ascii	"channel\000"
 2287      6E656C00 
 2288              	.LASF68:
 2289 02b7 474E5520 		.ascii	"GNU C 4.9.3 20150529 (prerelease) -mcpu=cortex-m4 -"
 2289      4320342E 
 2289      392E3320 
 2289      32303135 
 2289      30353239 
ARM GAS  /tmp/ccLOk4hM.s 			page 44


 2290 02ea 6D6E6F2D 		.ascii	"mno-thumb-interwork -mthumb -ggdb -O2 -fomit-frame-"
 2290      7468756D 
 2290      622D696E 
 2290      74657277 
 2290      6F726B20 
 2291 031d 706F696E 		.ascii	"pointer -falign-functions=16 -ffunction-sections -f"
 2291      74657220 
 2291      2D66616C 
 2291      69676E2D 
 2291      66756E63 
 2292 0350 64617461 		.ascii	"data-sections -fno-common\000"
 2292      2D736563 
 2292      74696F6E 
 2292      73202D66 
 2292      6E6F2D63 
 2293              	.LASF56:
 2294 036a 70776D43 		.ascii	"pwmChangePeriod\000"
 2294      68616E67 
 2294      65506572 
 2294      696F6400 
 2295              	.LASF10:
 2296 037a 6C6F6E67 		.ascii	"long unsigned int\000"
 2296      20756E73 
 2296      69676E65 
 2296      6420696E 
 2296      7400
 2297              	.LASF28:
 2298 038c 636C6F63 		.ascii	"clock\000"
 2298      6B00
 2299              	.LASF7:
 2300 0392 5F5F696E 		.ascii	"__int32_t\000"
 2300      7433325F 
 2300      7400
 2301              	.LASF22:
 2302 039c 50574D5F 		.ascii	"PWM_READY\000"
 2302      52454144 
 2302      5900
 2303              	.LASF21:
 2304 03a6 50574D5F 		.ascii	"PWM_STOP\000"
 2304      53544F50 
 2304      00
 2305              	.LASF49:
 2306 03af 64696572 		.ascii	"dier\000"
 2306      00
 2307              	.LASF55:
 2308 03b4 70776D53 		.ascii	"pwmStop\000"
 2308      746F7000 
 2309              	.LASF47:
 2310 03bc 66726571 		.ascii	"frequency\000"
 2310      75656E63 
 2310      7900
 2311              	.LASF46:
 2312 03c6 50574D43 		.ascii	"PWMChannelConfig\000"
 2312      68616E6E 
 2312      656C436F 
 2312      6E666967 
 2312      00
ARM GAS  /tmp/ccLOk4hM.s 			page 45


 2313              	.LASF41:
 2314 03d7 70776D6D 		.ascii	"pwmmode_t\000"
 2314      6F64655F 
 2314      7400
 2315              	.LASF71:
 2316 03e1 49544D5F 		.ascii	"ITM_RxBuffer\000"
 2316      52784275 
 2316      66666572 
 2316      00
 2317              	.LASF23:
 2318 03ee 70776D73 		.ascii	"pwmstate_t\000"
 2318      74617465 
 2318      5F7400
 2319              	.LASF29:
 2320 03f9 70776D63 		.ascii	"pwmcallback_t\000"
 2320      616C6C62 
 2320      61636B5F 
 2320      7400
 2321              	.LASF45:
 2322 0407 63616C6C 		.ascii	"callback\000"
 2322      6261636B 
 2322      00
 2323              		.ident	"GCC: (15:4.9.3+svn231177-1) 4.9.3 20150529 (prerelease)"
ARM GAS  /tmp/ccLOk4hM.s 			page 46


DEFINED SYMBOLS
                            *ABS*:0000000000000000 pwm.c
     /tmp/ccLOk4hM.s:19     .text.pwmInit:0000000000000000 $t
     /tmp/ccLOk4hM.s:25     .text.pwmInit:0000000000000000 pwmInit
     /tmp/ccLOk4hM.s:40     .text.pwmObjectInit:0000000000000000 $t
     /tmp/ccLOk4hM.s:46     .text.pwmObjectInit:0000000000000000 pwmObjectInit
     /tmp/ccLOk4hM.s:67     .text.pwmStart:0000000000000000 $t
     /tmp/ccLOk4hM.s:73     .text.pwmStart:0000000000000000 pwmStart
     /tmp/ccLOk4hM.s:150    .text.pwmStart:0000000000000048 $d
     /tmp/ccLOk4hM.s:156    .text.pwmStop:0000000000000000 $t
     /tmp/ccLOk4hM.s:162    .text.pwmStop:0000000000000000 pwmStop
     /tmp/ccLOk4hM.s:227    .text.pwmStop:000000000000003c $d
     /tmp/ccLOk4hM.s:233    .text.pwmChangePeriod:0000000000000000 $t
     /tmp/ccLOk4hM.s:239    .text.pwmChangePeriod:0000000000000000 pwmChangePeriod
     /tmp/ccLOk4hM.s:306    .text.pwmChangePeriod:000000000000003c $d
     /tmp/ccLOk4hM.s:312    .text.pwmEnableChannel:0000000000000000 $t
     /tmp/ccLOk4hM.s:318    .text.pwmEnableChannel:0000000000000000 pwmEnableChannel
     /tmp/ccLOk4hM.s:389    .text.pwmEnableChannel:0000000000000044 $d
     /tmp/ccLOk4hM.s:395    .text.pwmDisableChannel:0000000000000000 $t
     /tmp/ccLOk4hM.s:401    .text.pwmDisableChannel:0000000000000000 pwmDisableChannel
     /tmp/ccLOk4hM.s:470    .text.pwmDisableChannel:0000000000000040 $d
     /tmp/ccLOk4hM.s:476    .rodata.str1.4:0000000000000000 $d
                     .debug_frame:0000000000000010 $d

UNDEFINED SYMBOLS
pwm_lld_init
dbg_check_lock
chDbgPanic
pwm_lld_start
dbg_check_unlock
pwm_lld_stop
pwm_lld_enable_channel
pwm_lld_disable_channel
