ARM GAS  /tmp/ccLOk4hM.s 			page 1


   1              		.syntax unified
   2              		.cpu cortex-m4
   3              		.fpu softvfp
   4              		.eabi_attribute 20, 1
   5              		.eabi_attribute 21, 1
   6              		.eabi_attribute 23, 3
   7              		.eabi_attribute 24, 1
   8              		.eabi_attribute 25, 1
   9              		.eabi_attribute 26, 1
  10              		.eabi_attribute 30, 2
  11              		.eabi_attribute 34, 1
  12              		.eabi_attribute 18, 4
  13              		.thumb
  14              		.file	"pwm.c"
  15              		.text
  16              	.Ltext0:
  17              		.cfi_sections	.debug_frame
  18              		.section	.text.pwmInit,"ax",%progbits
  19              		.align	2
  20              		.p2align 4,,15
  21              		.global	pwmInit
  22              		.thumb
  23              		.thumb_func
  24              		.type	pwmInit, %function
  25              	pwmInit:
  26              	.LFB118:
  27              		.file 1 "ChibiOS_2.6.5/os/hal/src/pwm.c"
  28              		.loc 1 68 0
  29              		.cfi_startproc
  30              		@ args = 0, pretend = 0, frame = 0
  31              		@ frame_needed = 0, uses_anonymous_args = 0
  32              		@ link register save eliminated.
  33              		.loc 1 70 0
  34 0000 FFF7FEBF 		b	pwm_lld_init
  35              	.LVL0:
  36              		.cfi_endproc
  37              	.LFE118:
  38              		.size	pwmInit, .-pwmInit
  39              		.section	.text.pwmObjectInit,"ax",%progbits
  40              		.align	2
  41              		.p2align 4,,15
  42              		.global	pwmObjectInit
  43              		.thumb
  44              		.thumb_func
  45              		.type	pwmObjectInit, %function
  46              	pwmObjectInit:
  47              	.LFB119:
  48              		.loc 1 80 0
  49              		.cfi_startproc
  50              		@ args = 0, pretend = 0, frame = 0
  51              		@ frame_needed = 0, uses_anonymous_args = 0
  52              		@ link register save eliminated.
  53              	.LVL1:
  54              		.loc 1 82 0
  55 0000 0122     		movs	r2, #1
  56              		.loc 1 83 0
  57 0002 0023     		movs	r3, #0
ARM GAS  /tmp/ccLOk4hM.s 			page 2


  58              		.loc 1 82 0
  59 0004 0270     		strb	r2, [r0]
  60              		.loc 1 83 0
  61 0006 4360     		str	r3, [r0, #4]
  62 0008 7047     		bx	lr
  63              		.cfi_endproc
  64              	.LFE119:
  65              		.size	pwmObjectInit, .-pwmObjectInit
  66 000a 00BF     		.section	.text.pwmStart,"ax",%progbits
  67              		.align	2
  68              		.p2align 4,,15
  69              		.global	pwmStart
  70              		.thumb
  71              		.thumb_func
  72              		.type	pwmStart, %function
  73              	pwmStart:
  74              	.LFB120:
  75              		.loc 1 99 0
  76              		.cfi_startproc
  77              		@ args = 0, pretend = 0, frame = 0
  78              		@ frame_needed = 0, uses_anonymous_args = 0
  79              	.LVL2:
  80 0000 38B5     		push	{r3, r4, r5, lr}
  81              		.cfi_def_cfa_offset 16
  82              		.cfi_offset 3, -16
  83              		.cfi_offset 4, -12
  84              		.cfi_offset 5, -8
  85              		.cfi_offset 14, -4
  86              		.loc 1 99 0
  87 0002 0D46     		mov	r5, r1
  88              		.loc 1 101 0
  89 0004 0446     		mov	r4, r0
  90 0006 D0B1     		cbz	r0, .L4
  91              		.loc 1 101 0 is_stmt 0 discriminator 2
  92 0008 C9B1     		cbz	r1, .L4
  93              	.LVL3:
  94              	.L5:
  95              	.LBB2:
  96              		.loc 1 103 0 is_stmt 1
  97 000a 2023     		movs	r3, #32
  98              	@ 103 "ChibiOS_2.6.5/os/hal/src/pwm.c" 1
  99 000c 83F31188 		msr     BASEPRI, r3
 100              	@ 0 "" 2
 101              		.thumb
 102              	.LBE2:
 103 0010 FFF7FEFF 		bl	dbg_check_lock
 104              	.LVL4:
 105              		.loc 1 104 0
 106 0014 2378     		ldrb	r3, [r4]	@ zero_extendqisi2
 107 0016 013B     		subs	r3, r3, #1
 108 0018 012B     		cmp	r3, #1
 109 001a 02D9     		bls	.L6
 110              		.loc 1 104 0 is_stmt 0 discriminator 1
 111 001c 0A48     		ldr	r0, .L12
 112 001e FFF7FEFF 		bl	chDbgPanic
 113              	.LVL5:
 114              	.L6:
ARM GAS  /tmp/ccLOk4hM.s 			page 3


 115              		.loc 1 107 0 is_stmt 1
 116 0022 AB88     		ldrh	r3, [r5, #4]
 117 0024 2381     		strh	r3, [r4, #8]	@ movhi
 118              		.loc 1 108 0
 119 0026 2046     		mov	r0, r4
 120              		.loc 1 106 0
 121 0028 6560     		str	r5, [r4, #4]
 122              		.loc 1 108 0
 123 002a FFF7FEFF 		bl	pwm_lld_start
 124              	.LVL6:
 125              		.loc 1 109 0
 126 002e 0223     		movs	r3, #2
 127 0030 2370     		strb	r3, [r4]
 128              		.loc 1 110 0
 129 0032 FFF7FEFF 		bl	dbg_check_unlock
 130              	.LVL7:
 131              	.LBB3:
 132 0036 0023     		movs	r3, #0
 133              	@ 110 "ChibiOS_2.6.5/os/hal/src/pwm.c" 1
 134 0038 83F31188 		msr     BASEPRI, r3
 135              	@ 0 "" 2
 136              		.thumb
 137 003c 38BD     		pop	{r3, r4, r5, pc}
 138              	.LVL8:
 139              	.L4:
 140              	.LBE3:
 141              		.loc 1 101 0 discriminator 3
 142 003e 0348     		ldr	r0, .L12+4
 143              	.LVL9:
 144 0040 FFF7FEFF 		bl	chDbgPanic
 145              	.LVL10:
 146 0044 E1E7     		b	.L5
 147              	.L13:
 148 0046 00BF     		.align	2
 149              	.L12:
 150 0048 10000000 		.word	.LC1
 151 004c 00000000 		.word	.LC0
 152              		.cfi_endproc
 153              	.LFE120:
 154              		.size	pwmStart, .-pwmStart
 155              		.section	.text.pwmStop,"ax",%progbits
 156              		.align	2
 157              		.p2align 4,,15
 158              		.global	pwmStop
 159              		.thumb
 160              		.thumb_func
 161              		.type	pwmStop, %function
 162              	pwmStop:
 163              	.LFB121:
 164              		.loc 1 120 0
 165              		.cfi_startproc
 166              		@ args = 0, pretend = 0, frame = 0
 167              		@ frame_needed = 0, uses_anonymous_args = 0
 168              	.LVL11:
 169 0000 10B5     		push	{r4, lr}
 170              		.cfi_def_cfa_offset 8
 171              		.cfi_offset 4, -8
ARM GAS  /tmp/ccLOk4hM.s 			page 4


 172              		.cfi_offset 14, -4
 173              		.loc 1 122 0
 174 0002 0446     		mov	r4, r0
 175 0004 B0B1     		cbz	r0, .L18
 176              	.LVL12:
 177              	.L15:
 178              	.LBB4:
 179              		.loc 1 124 0
 180 0006 2023     		movs	r3, #32
 181              	@ 124 "ChibiOS_2.6.5/os/hal/src/pwm.c" 1
 182 0008 83F31188 		msr     BASEPRI, r3
 183              	@ 0 "" 2
 184              		.thumb
 185              	.LBE4:
 186 000c FFF7FEFF 		bl	dbg_check_lock
 187              	.LVL13:
 188              		.loc 1 125 0
 189 0010 2378     		ldrb	r3, [r4]	@ zero_extendqisi2
 190 0012 013B     		subs	r3, r3, #1
 191 0014 012B     		cmp	r3, #1
 192 0016 02D9     		bls	.L16
 193              		.loc 1 125 0 is_stmt 0 discriminator 1
 194 0018 0848     		ldr	r0, .L19
 195 001a FFF7FEFF 		bl	chDbgPanic
 196              	.LVL14:
 197              	.L16:
 198              		.loc 1 127 0 is_stmt 1
 199 001e 2046     		mov	r0, r4
 200 0020 FFF7FEFF 		bl	pwm_lld_stop
 201              	.LVL15:
 202              		.loc 1 128 0
 203 0024 0123     		movs	r3, #1
 204 0026 2370     		strb	r3, [r4]
 205              		.loc 1 129 0
 206 0028 FFF7FEFF 		bl	dbg_check_unlock
 207              	.LVL16:
 208              	.LBB5:
 209 002c 0023     		movs	r3, #0
 210              	@ 129 "ChibiOS_2.6.5/os/hal/src/pwm.c" 1
 211 002e 83F31188 		msr     BASEPRI, r3
 212              	@ 0 "" 2
 213              		.thumb
 214 0032 10BD     		pop	{r4, pc}
 215              	.LVL17:
 216              	.L18:
 217              	.LBE5:
 218              		.loc 1 122 0 discriminator 1
 219 0034 0248     		ldr	r0, .L19+4
 220              	.LVL18:
 221 0036 FFF7FEFF 		bl	chDbgPanic
 222              	.LVL19:
 223 003a E4E7     		b	.L15
 224              	.L20:
 225              		.align	2
 226              	.L19:
 227 003c 2C000000 		.word	.LC3
 228 0040 20000000 		.word	.LC2
ARM GAS  /tmp/ccLOk4hM.s 			page 5


 229              		.cfi_endproc
 230              	.LFE121:
 231              		.size	pwmStop, .-pwmStop
 232              		.section	.text.pwmChangePeriod,"ax",%progbits
 233              		.align	2
 234              		.p2align 4,,15
 235              		.global	pwmChangePeriod
 236              		.thumb
 237              		.thumb_func
 238              		.type	pwmChangePeriod, %function
 239              	pwmChangePeriod:
 240              	.LFB122:
 241              		.loc 1 147 0
 242              		.cfi_startproc
 243              		@ args = 0, pretend = 0, frame = 0
 244              		@ frame_needed = 0, uses_anonymous_args = 0
 245              	.LVL20:
 246 0000 38B5     		push	{r3, r4, r5, lr}
 247              		.cfi_def_cfa_offset 16
 248              		.cfi_offset 3, -16
 249              		.cfi_offset 4, -12
 250              		.cfi_offset 5, -8
 251              		.cfi_offset 14, -4
 252              		.loc 1 147 0
 253 0002 0D46     		mov	r5, r1
 254              		.loc 1 149 0
 255 0004 0446     		mov	r4, r0
 256 0006 A8B1     		cbz	r0, .L28
 257              	.LVL21:
 258              	.L22:
 259              	.LBB6:
 260              		.loc 1 151 0
 261 0008 2023     		movs	r3, #32
 262              	@ 151 "ChibiOS_2.6.5/os/hal/src/pwm.c" 1
 263 000a 83F31188 		msr     BASEPRI, r3
 264              	@ 0 "" 2
 265              		.thumb
 266              	.LBE6:
 267 000e FFF7FEFF 		bl	dbg_check_lock
 268              	.LVL22:
 269              		.loc 1 152 0
 270 0012 2378     		ldrb	r3, [r4]	@ zero_extendqisi2
 271 0014 022B     		cmp	r3, #2
 272 0016 02D0     		beq	.L23
 273              		.loc 1 152 0 is_stmt 0 discriminator 1
 274 0018 0848     		ldr	r0, .L29
 275 001a FFF7FEFF 		bl	chDbgPanic
 276              	.LVL23:
 277              	.L23:
 278              		.loc 1 154 0 is_stmt 1
 279 001e 2269     		ldr	r2, [r4, #16]
 280 0020 2581     		strh	r5, [r4, #8]	@ movhi
 281 0022 6B1E     		subs	r3, r5, #1
 282 0024 9BB2     		uxth	r3, r3
 283 0026 D362     		str	r3, [r2, #44]
 284              		.loc 1 155 0
 285 0028 FFF7FEFF 		bl	dbg_check_unlock
ARM GAS  /tmp/ccLOk4hM.s 			page 6


 286              	.LVL24:
 287              	.LBB7:
 288 002c 0023     		movs	r3, #0
 289              	@ 155 "ChibiOS_2.6.5/os/hal/src/pwm.c" 1
 290 002e 83F31188 		msr     BASEPRI, r3
 291              	@ 0 "" 2
 292              		.thumb
 293 0032 38BD     		pop	{r3, r4, r5, pc}
 294              	.LVL25:
 295              	.L28:
 296              	.LBE7:
 297              		.loc 1 149 0 discriminator 1
 298 0034 0248     		ldr	r0, .L29+4
 299              	.LVL26:
 300 0036 FFF7FEFF 		bl	chDbgPanic
 301              	.LVL27:
 302 003a E5E7     		b	.L22
 303              	.L30:
 304              		.align	2
 305              	.L29:
 306 003c 50000000 		.word	.LC5
 307 0040 3C000000 		.word	.LC4
 308              		.cfi_endproc
 309              	.LFE122:
 310              		.size	pwmChangePeriod, .-pwmChangePeriod
 311              		.section	.text.pwmEnableChannel,"ax",%progbits
 312              		.align	2
 313              		.p2align 4,,15
 314              		.global	pwmEnableChannel
 315              		.thumb
 316              		.thumb_func
 317              		.type	pwmEnableChannel, %function
 318              	pwmEnableChannel:
 319              	.LFB123:
 320              		.loc 1 174 0
 321              		.cfi_startproc
 322              		@ args = 0, pretend = 0, frame = 0
 323              		@ frame_needed = 0, uses_anonymous_args = 0
 324              	.LVL28:
 325 0000 70B5     		push	{r4, r5, r6, lr}
 326              		.cfi_def_cfa_offset 16
 327              		.cfi_offset 4, -16
 328              		.cfi_offset 5, -12
 329              		.cfi_offset 6, -8
 330              		.cfi_offset 14, -4
 331              		.loc 1 174 0
 332 0002 0D46     		mov	r5, r1
 333 0004 1646     		mov	r6, r2
 334              		.loc 1 176 0
 335 0006 0446     		mov	r4, r0
 336 0008 B8B1     		cbz	r0, .L32
 337              		.loc 1 176 0 is_stmt 0 discriminator 2
 338 000a 0329     		cmp	r1, #3
 339 000c 15D8     		bhi	.L32
 340              	.LVL29:
 341              	.L33:
 342              	.LBB8:
ARM GAS  /tmp/ccLOk4hM.s 			page 7


 343              		.loc 1 179 0 is_stmt 1
 344 000e 2023     		movs	r3, #32
 345              	@ 179 "ChibiOS_2.6.5/os/hal/src/pwm.c" 1
 346 0010 83F31188 		msr     BASEPRI, r3
 347              	@ 0 "" 2
 348              		.thumb
 349              	.LBE8:
 350 0014 FFF7FEFF 		bl	dbg_check_lock
 351              	.LVL30:
 352              		.loc 1 180 0
 353 0018 2378     		ldrb	r3, [r4]	@ zero_extendqisi2
 354 001a 022B     		cmp	r3, #2
 355 001c 02D0     		beq	.L34
 356              		.loc 1 180 0 is_stmt 0 discriminator 1
 357 001e 0948     		ldr	r0, .L42
 358 0020 FFF7FEFF 		bl	chDbgPanic
 359              	.LVL31:
 360              	.L34:
 361              		.loc 1 182 0 is_stmt 1
 362 0024 2046     		mov	r0, r4
 363 0026 2946     		mov	r1, r5
 364 0028 3246     		mov	r2, r6
 365 002a FFF7FEFF 		bl	pwm_lld_enable_channel
 366              	.LVL32:
 367              		.loc 1 183 0
 368 002e FFF7FEFF 		bl	dbg_check_unlock
 369              	.LVL33:
 370              	.LBB9:
 371 0032 0023     		movs	r3, #0
 372              	@ 183 "ChibiOS_2.6.5/os/hal/src/pwm.c" 1
 373 0034 83F31188 		msr     BASEPRI, r3
 374              	@ 0 "" 2
 375              		.thumb
 376 0038 70BD     		pop	{r4, r5, r6, pc}
 377              	.LVL34:
 378              	.L32:
 379              	.LBE9:
 380              		.loc 1 176 0 discriminator 3
 381 003a 0348     		ldr	r0, .L42+4
 382              	.LVL35:
 383 003c FFF7FEFF 		bl	chDbgPanic
 384              	.LVL36:
 385 0040 E5E7     		b	.L33
 386              	.L43:
 387 0042 00BF     		.align	2
 388              	.L42:
 389 0044 80000000 		.word	.LC7
 390 0048 68000000 		.word	.LC6
 391              		.cfi_endproc
 392              	.LFE123:
 393              		.size	pwmEnableChannel, .-pwmEnableChannel
 394              		.section	.text.pwmDisableChannel,"ax",%progbits
 395              		.align	2
 396              		.p2align 4,,15
 397              		.global	pwmDisableChannel
 398              		.thumb
 399              		.thumb_func
ARM GAS  /tmp/ccLOk4hM.s 			page 8


 400              		.type	pwmDisableChannel, %function
 401              	pwmDisableChannel:
 402              	.LFB124:
 403              		.loc 1 200 0
 404              		.cfi_startproc
 405              		@ args = 0, pretend = 0, frame = 0
 406              		@ frame_needed = 0, uses_anonymous_args = 0
 407              	.LVL37:
 408 0000 38B5     		push	{r3, r4, r5, lr}
 409              		.cfi_def_cfa_offset 16
 410              		.cfi_offset 3, -16
 411              		.cfi_offset 4, -12
 412              		.cfi_offset 5, -8
 413              		.cfi_offset 14, -4
 414              		.loc 1 200 0
 415 0002 0D46     		mov	r5, r1
 416              		.loc 1 202 0
 417 0004 0446     		mov	r4, r0
 418 0006 B0B1     		cbz	r0, .L45
 419              		.loc 1 202 0 is_stmt 0 discriminator 2
 420 0008 0329     		cmp	r1, #3
 421 000a 14D8     		bhi	.L45
 422              	.LVL38:
 423              	.L46:
 424              	.LBB10:
 425              		.loc 1 205 0 is_stmt 1
 426 000c 2023     		movs	r3, #32
 427              	@ 205 "ChibiOS_2.6.5/os/hal/src/pwm.c" 1
 428 000e 83F31188 		msr     BASEPRI, r3
 429              	@ 0 "" 2
 430              		.thumb
 431              	.LBE10:
 432 0012 FFF7FEFF 		bl	dbg_check_lock
 433              	.LVL39:
 434              		.loc 1 206 0
 435 0016 2378     		ldrb	r3, [r4]	@ zero_extendqisi2
 436 0018 022B     		cmp	r3, #2
 437 001a 02D0     		beq	.L47
 438              		.loc 1 206 0 is_stmt 0 discriminator 1
 439 001c 0848     		ldr	r0, .L55
 440 001e FFF7FEFF 		bl	chDbgPanic
 441              	.LVL40:
 442              	.L47:
 443              		.loc 1 208 0 is_stmt 1
 444 0022 2046     		mov	r0, r4
 445 0024 2946     		mov	r1, r5
 446 0026 FFF7FEFF 		bl	pwm_lld_disable_channel
 447              	.LVL41:
 448              		.loc 1 209 0
 449 002a FFF7FEFF 		bl	dbg_check_unlock
 450              	.LVL42:
 451              	.LBB11:
 452 002e 0023     		movs	r3, #0
 453              	@ 209 "ChibiOS_2.6.5/os/hal/src/pwm.c" 1
 454 0030 83F31188 		msr     BASEPRI, r3
 455              	@ 0 "" 2
 456              		.thumb
ARM GAS  /tmp/ccLOk4hM.s 			page 9


 457 0034 38BD     		pop	{r3, r4, r5, pc}
 458              	.LVL43:
 459              	.L45:
 460              	.LBE11:
 461              		.loc 1 202 0 discriminator 3
 462 0036 0348     		ldr	r0, .L55+4
 463              	.LVL44:
 464 0038 FFF7FEFF 		bl	chDbgPanic
 465              	.LVL45:
 466 003c E6E7     		b	.L46
 467              	.L56:
 468 003e 00BF     		.align	2
 469              	.L55:
 470 0040 98000000 		.word	.LC8
 471 0044 68000000 		.word	.LC6
 472              		.cfi_endproc
 473              	.LFE124:
 474              		.size	pwmDisableChannel, .-pwmDisableChannel
 475              		.section	.rodata.str1.4,"aMS",%progbits,1
 476              		.align	2
 477              	.LC0:
 478 0000 2270776D 		.ascii	"\"pwmStart\"()\000"
 478      53746172 
 478      74222829 
 478      00
 479 000d 000000   		.space	3
 480              	.LC1:
 481 0010 70776D53 		.ascii	"pwmStart(), #1\000"
 481      74617274 
 481      28292C20 
 481      233100
 482 001f 00       		.space	1
 483              	.LC2:
 484 0020 2270776D 		.ascii	"\"pwmStop\"()\000"
 484      53746F70 
 484      22282900 
 485              	.LC3:
 486 002c 70776D53 		.ascii	"pwmStop(), #1\000"
 486      746F7028 
 486      292C2023 
 486      3100
 487 003a 0000     		.space	2
 488              	.LC4:
 489 003c 2270776D 		.ascii	"\"pwmChangePeriod\"()\000"
 489      4368616E 
 489      67655065 
 489      72696F64 
 489      22282900 
 490              	.LC5:
 491 0050 70776D43 		.ascii	"pwmChangePeriod(), #1\000"
 491      68616E67 
 491      65506572 
 491      696F6428 
 491      292C2023 
 492 0066 0000     		.space	2
 493              	.LC6:
 494 0068 2270776D 		.ascii	"\"pwmEnableChannel\"()\000"
ARM GAS  /tmp/ccLOk4hM.s 			page 10


 494      456E6162 
 494      6C654368 
 494      616E6E65 
 494      6C222829 
 495 007d 000000   		.space	3
 496              	.LC7:
 497 0080 70776D45 		.ascii	"pwmEnableChannel(), #1\000"
 497      6E61626C 
 497      65436861 
 497      6E6E656C 
 497      28292C20 
 498 0097 00       		.space	1
 499              	.LC8:
 500 0098 70776D44 		.ascii	"pwmDisableChannel(), #1\000"
 500      69736162 
 500      6C654368 
 500      616E6E65 
 500      6C28292C 
 501              		.text
 502              	.Letext0:
 503              		.file 2 "/usr/include/newlib/machine/_default_types.h"
 504              		.file 3 "/usr/include/newlib/sys/_stdint.h"
 505              		.file 4 "ChibiOS_2.6.5/os/hal/include/pwm.h"
 506              		.file 5 "ChibiOS_2.6.5/os/hal/platforms/STM32/TIMv1/pwm_lld.h"
 507              		.file 6 "ChibiOS_2.6.5/os/hal/platforms/STM32/TIMv1/stm32_tim.h"
 508              		.file 7 "ChibiOS_2.6.5/os/kernel/include/chdebug.h"
 509              		.file 8 "ChibiOS_2.6.5/os/ports/common/ARMCMx/CMSIS/include/core_cm4.h"