ARM GAS  /tmp/ccXmtIij.s 			page 1


   1              		.syntax unified
   2              		.cpu cortex-m4
   3              		.fpu softvfp
   4              		.eabi_attribute 20, 1
   5              		.eabi_attribute 21, 1
   6              		.eabi_attribute 23, 3
   7              		.eabi_attribute 24, 1
   8              		.eabi_attribute 25, 1
   9              		.eabi_attribute 26, 1
  10              		.eabi_attribute 30, 2
  11              		.eabi_attribute 34, 1
  12              		.eabi_attribute 18, 4
  13              		.thumb
  14              		.file	"pwm_lld.c"
  15              		.text
  16              	.Ltext0:
  17              		.cfi_sections	.debug_frame
  18              		.section	.text.pwm_lld_serve_interrupt,"ax",%progbits
  19              		.align	2
  20              		.p2align 4,,15
  21              		.thumb
  22              		.thumb_func
  23              		.type	pwm_lld_serve_interrupt, %function
  24              	pwm_lld_serve_interrupt:
  25              	.LFB118:
  26              		.file 1 "ChibiOS_2.6.5/os/hal/platforms/STM32/TIMv1/pwm_lld.c"
  27              		.loc 1 112 0
  28              		.cfi_startproc
  29              		@ args = 0, pretend = 0, frame = 0
  30              		@ frame_needed = 0, uses_anonymous_args = 0
  31              	.LVL0:
  32              		.loc 1 115 0
  33 0000 0269     		ldr	r2, [r0, #16]
  34              		.loc 1 112 0
  35 0002 70B5     		push	{r4, r5, r6, lr}
  36              		.cfi_def_cfa_offset 16
  37              		.cfi_offset 4, -16
  38              		.cfi_offset 5, -12
  39              		.cfi_offset 6, -8
  40              		.cfi_offset 14, -4
  41              		.loc 1 115 0
  42 0004 1469     		ldr	r4, [r2, #16]
  43              	.LVL1:
  44              		.loc 1 116 0
  45 0006 D368     		ldr	r3, [r2, #12]
  46 0008 DBB2     		uxtb	r3, r3
  47 000a 1C40     		ands	r4, r4, r3
  48              	.LVL2:
  49              		.loc 1 117 0
  50 000c E343     		mvns	r3, r4
  51              		.loc 1 118 0
  52 000e A607     		lsls	r6, r4, #30
  53              		.loc 1 112 0
  54 0010 0546     		mov	r5, r0
  55              		.loc 1 117 0
  56 0012 1361     		str	r3, [r2, #16]
  57              		.loc 1 118 0
ARM GAS  /tmp/ccXmtIij.s 			page 2


  58 0014 1DD4     		bmi	.L21
  59              	.LVL3:
  60              	.L2:
  61              		.loc 1 120 0
  62 0016 6007     		lsls	r0, r4, #29
  63 0018 16D4     		bmi	.L22
  64              	.L3:
  65              		.loc 1 122 0
  66 001a 2107     		lsls	r1, r4, #28
  67 001c 0FD4     		bmi	.L23
  68              	.L4:
  69              		.loc 1 124 0
  70 001e E206     		lsls	r2, r4, #27
  71 0020 08D4     		bmi	.L24
  72              	.L5:
  73              		.loc 1 126 0
  74 0022 E307     		lsls	r3, r4, #31
  75 0024 00D4     		bmi	.L25
  76 0026 70BD     		pop	{r4, r5, r6, pc}
  77              	.LVL4:
  78              	.L25:
  79              		.loc 1 127 0
  80 0028 6B68     		ldr	r3, [r5, #4]
  81 002a 2846     		mov	r0, r5
  82 002c 9B68     		ldr	r3, [r3, #8]
  83              		.loc 1 128 0
  84 002e BDE87040 		pop	{r4, r5, r6, lr}
  85              		.cfi_remember_state
  86              		.cfi_restore 14
  87              		.cfi_restore 6
  88              		.cfi_restore 5
  89              		.cfi_restore 4
  90              		.cfi_def_cfa_offset 0
  91              	.LVL5:
  92              		.loc 1 127 0
  93 0032 1847     		bx	r3	@ indirect register sibling call
  94              	.LVL6:
  95              	.L24:
  96              		.cfi_restore_state
  97              		.loc 1 125 0
  98 0034 6B68     		ldr	r3, [r5, #4]
  99 0036 2846     		mov	r0, r5
 100 0038 9B6A     		ldr	r3, [r3, #40]
 101 003a 9847     		blx	r3
 102              	.LVL7:
 103 003c F1E7     		b	.L5
 104              	.L23:
 105              		.loc 1 123 0
 106 003e 6B68     		ldr	r3, [r5, #4]
 107 0040 2846     		mov	r0, r5
 108 0042 1B6A     		ldr	r3, [r3, #32]
 109 0044 9847     		blx	r3
 110              	.LVL8:
 111 0046 EAE7     		b	.L4
 112              	.L22:
 113              		.loc 1 121 0
 114 0048 6B68     		ldr	r3, [r5, #4]
ARM GAS  /tmp/ccXmtIij.s 			page 3


 115 004a 2846     		mov	r0, r5
 116 004c 9B69     		ldr	r3, [r3, #24]
 117 004e 9847     		blx	r3
 118              	.LVL9:
 119 0050 E3E7     		b	.L3
 120              	.LVL10:
 121              	.L21:
 122              		.loc 1 119 0
 123 0052 4368     		ldr	r3, [r0, #4]
 124 0054 1B69     		ldr	r3, [r3, #16]
 125 0056 9847     		blx	r3
 126              	.LVL11:
 127 0058 DDE7     		b	.L2
 128              		.cfi_endproc
 129              	.LFE118:
 130              		.size	pwm_lld_serve_interrupt, .-pwm_lld_serve_interrupt
 131 005a 00BF     		.section	.text.VectorB4,"ax",%progbits
 132              		.align	2
 133              		.p2align 4,,15
 134              		.global	VectorB4
 135              		.thumb
 136              		.thumb_func
 137              		.type	VectorB4, %function
 138              	VectorB4:
 139              	.LFB119:
 140              		.loc 1 216 0
 141              		.cfi_startproc
 142              		@ args = 0, pretend = 0, frame = 0
 143              		@ frame_needed = 0, uses_anonymous_args = 0
 144 0000 08B5     		push	{r3, lr}
 145              		.cfi_def_cfa_offset 8
 146              		.cfi_offset 3, -8
 147              		.cfi_offset 14, -4
 148              		.loc 1 218 0
 149 0002 FFF7FEFF 		bl	dbg_check_enter_isr
 150              	.LVL12:
 151              		.loc 1 220 0
 152 0006 0448     		ldr	r0, .L28
 153 0008 FFF7FEFF 		bl	pwm_lld_serve_interrupt
 154              	.LVL13:
 155              		.loc 1 222 0
 156 000c FFF7FEFF 		bl	dbg_check_leave_isr
 157              	.LVL14:
 158              		.loc 1 223 0
 159 0010 BDE80840 		pop	{r3, lr}
 160              		.cfi_restore 14
 161              		.cfi_restore 3
 162              		.cfi_def_cfa_offset 0
 163              		.loc 1 222 0
 164 0014 FFF7FEBF 		b	_port_irq_epilogue
 165              	.LVL15:
 166              	.L29:
 167              		.align	2
 168              	.L28:
 169 0018 00000000 		.word	.LANCHOR0
 170              		.cfi_endproc
 171              	.LFE119:
ARM GAS  /tmp/ccXmtIij.s 			page 4


 172              		.size	VectorB4, .-VectorB4
 173              		.section	.text.VectorB8,"ax",%progbits
 174              		.align	2
 175              		.p2align 4,,15
 176              		.global	VectorB8
 177              		.thumb
 178              		.thumb_func
 179              		.type	VectorB8, %function
 180              	VectorB8:
 181              	.LFB120:
 182              		.loc 1 235 0
 183              		.cfi_startproc
 184              		@ args = 0, pretend = 0, frame = 0
 185              		@ frame_needed = 0, uses_anonymous_args = 0
 186 0000 08B5     		push	{r3, lr}
 187              		.cfi_def_cfa_offset 8
 188              		.cfi_offset 3, -8
 189              		.cfi_offset 14, -4
 190              		.loc 1 237 0
 191 0002 FFF7FEFF 		bl	dbg_check_enter_isr
 192              	.LVL16:
 193              		.loc 1 239 0
 194 0006 0448     		ldr	r0, .L32
 195 0008 FFF7FEFF 		bl	pwm_lld_serve_interrupt
 196              	.LVL17:
 197              		.loc 1 241 0
 198 000c FFF7FEFF 		bl	dbg_check_leave_isr
 199              	.LVL18:
 200              		.loc 1 242 0
 201 0010 BDE80840 		pop	{r3, lr}
 202              		.cfi_restore 14
 203              		.cfi_restore 3
 204              		.cfi_def_cfa_offset 0
 205              		.loc 1 241 0
 206 0014 FFF7FEBF 		b	_port_irq_epilogue
 207              	.LVL19:
 208              	.L33:
 209              		.align	2
 210              	.L32:
 211 0018 00000000 		.word	.LANCHOR1
 212              		.cfi_endproc
 213              	.LFE120:
 214              		.size	VectorB8, .-VectorB8
 215              		.section	.text.pwm_lld_init,"ax",%progbits
 216              		.align	2
 217              		.p2align 4,,15
 218              		.global	pwm_lld_init
 219              		.thumb
 220              		.thumb_func
 221              		.type	pwm_lld_init, %function
 222              	pwm_lld_init:
 223              	.LFB121:
 224              		.loc 1 345 0
 225              		.cfi_startproc
 226              		@ args = 0, pretend = 0, frame = 0
 227              		@ frame_needed = 0, uses_anonymous_args = 0
 228 0000 38B5     		push	{r3, r4, r5, lr}
ARM GAS  /tmp/ccXmtIij.s 			page 5


 229              		.cfi_def_cfa_offset 16
 230              		.cfi_offset 3, -16
 231              		.cfi_offset 4, -12
 232              		.cfi_offset 5, -8
 233              		.cfi_offset 14, -4
 234              		.loc 1 361 0
 235 0002 064D     		ldr	r5, .L36
 236              		.loc 1 367 0
 237 0004 064C     		ldr	r4, .L36+4
 238              		.loc 1 361 0
 239 0006 2846     		mov	r0, r5
 240 0008 FFF7FEFF 		bl	pwmObjectInit
 241              	.LVL20:
 242              		.loc 1 362 0
 243 000c 054B     		ldr	r3, .L36+8
 244 000e 2B61     		str	r3, [r5, #16]
 245              		.loc 1 367 0
 246 0010 2046     		mov	r0, r4
 247 0012 FFF7FEFF 		bl	pwmObjectInit
 248              	.LVL21:
 249              		.loc 1 368 0
 250 0016 044B     		ldr	r3, .L36+12
 251 0018 2361     		str	r3, [r4, #16]
 252 001a 38BD     		pop	{r3, r4, r5, pc}
 253              	.L37:
 254              		.align	2
 255              	.L36:
 256 001c 00000000 		.word	.LANCHOR0
 257 0020 00000000 		.word	.LANCHOR1
 258 0024 00040040 		.word	1073742848
 259 0028 00080040 		.word	1073743872
 260              		.cfi_endproc
 261              	.LFE121:
 262              		.size	pwm_lld_init, .-pwm_lld_init
 263              		.section	.text.pwm_lld_start,"ax",%progbits
 264              		.align	2
 265              		.p2align 4,,15
 266              		.global	pwm_lld_start
 267              		.thumb
 268              		.thumb_func
 269              		.type	pwm_lld_start, %function
 270              	pwm_lld_start:
 271              	.LFB122:
 272              		.loc 1 399 0
 273              		.cfi_startproc
 274              		@ args = 0, pretend = 0, frame = 0
 275              		@ frame_needed = 0, uses_anonymous_args = 0
 276              	.LVL22:
 277              		.loc 1 403 0
 278 0000 0378     		ldrb	r3, [r0]	@ zero_extendqisi2
 279 0002 012B     		cmp	r3, #1
 280              		.loc 1 399 0
 281 0004 70B5     		push	{r4, r5, r6, lr}
 282              		.cfi_def_cfa_offset 16
 283              		.cfi_offset 4, -16
 284              		.cfi_offset 5, -12
 285              		.cfi_offset 6, -8
ARM GAS  /tmp/ccXmtIij.s 			page 6


 286              		.cfi_offset 14, -4
 287              		.loc 1 399 0
 288 0006 0446     		mov	r4, r0
 289              		.loc 1 403 0
 290 0008 61D0     		beq	.L70
 291              		.loc 1 492 0
 292 000a 4168     		ldr	r1, [r0, #4]
 293              		.loc 1 491 0
 294 000c 0369     		ldr	r3, [r0, #16]
 295              		.loc 1 492 0
 296 000e 086B     		ldr	r0, [r1, #48]
 297              	.LVL23:
 298              		.loc 1 491 0
 299 0010 0022     		movs	r2, #0
 300              		.loc 1 492 0
 301 0012 20F0FF00 		bic	r0, r0, #255
 302              		.loc 1 491 0
 303 0016 1A60     		str	r2, [r3]
 304              		.loc 1 492 0
 305 0018 D860     		str	r0, [r3, #12]
 306              		.loc 1 494 0
 307 001a 1A61     		str	r2, [r3, #16]
 308              		.loc 1 495 0
 309 001c 5A63     		str	r2, [r3, #52]
 310              		.loc 1 496 0
 311 001e 9A63     		str	r2, [r3, #56]
 312              		.loc 1 497 0
 313 0020 DA63     		str	r2, [r3, #60]
 314              		.loc 1 498 0
 315 0022 1A64     		str	r2, [r3, #64]
 316              		.loc 1 499 0
 317 0024 5A62     		str	r2, [r3, #36]
 318              	.L42:
 319              		.loc 1 503 0
 320 0026 E068     		ldr	r0, [r4, #12]
 321 0028 0A68     		ldr	r2, [r1]
 322 002a B0FBF2F6 		udiv	r6, r0, r2
 323 002e 751E     		subs	r5, r6, #1
 324              	.LVL24:
 325              		.loc 1 504 0
 326 0030 B5F5803F 		cmp	r5, #65536
 327 0034 03D2     		bcs	.L43
 328              		.loc 1 504 0 is_stmt 0 discriminator 2
 329 0036 02FB06F2 		mul	r2, r2, r6
 330 003a 9042     		cmp	r0, r2
 331 003c 04D0     		beq	.L44
 332              	.L43:
 333              		.loc 1 504 0 discriminator 3
 334 003e 3948     		ldr	r0, .L75
 335 0040 FFF7FEFF 		bl	chDbgPanic
 336              	.LVL25:
 337 0044 6168     		ldr	r1, [r4, #4]
 338 0046 2369     		ldr	r3, [r4, #16]
 339              	.L44:
 340              		.loc 1 508 0 is_stmt 1
 341 0048 2089     		ldrh	r0, [r4, #8]
 342              		.loc 1 513 0
ARM GAS  /tmp/ccXmtIij.s 			page 7


 343 004a CA68     		ldr	r2, [r1, #12]
 344              		.loc 1 509 0
 345 004c CC6A     		ldr	r4, [r1, #44]
 346              	.LVL26:
 347              		.loc 1 508 0
 348 004e 0138     		subs	r0, r0, #1
 349              		.loc 1 513 0
 350 0050 02F00F02 		and	r2, r2, #15
 351              		.loc 1 508 0
 352 0054 80B2     		uxth	r0, r0
 353              		.loc 1 507 0
 354 0056 ADB2     		uxth	r5, r5
 355              	.LVL27:
 356              		.loc 1 513 0
 357 0058 012A     		cmp	r2, #1
 358              		.loc 1 507 0
 359 005a 9D62     		str	r5, [r3, #40]
 360              		.loc 1 508 0
 361 005c D862     		str	r0, [r3, #44]
 362              		.loc 1 509 0
 363 005e 5C60     		str	r4, [r3, #4]
 364              	.LVL28:
 365              		.loc 1 513 0
 366 0060 03D0     		beq	.L45
 367              		.loc 1 512 0
 368 0062 022A     		cmp	r2, #2
 369 0064 0CBF     		ite	eq
 370 0066 0322     		moveq	r2, #3
 371 0068 0022     		movne	r2, #0
 372              	.L45:
 373              	.LVL29:
 374              		.loc 1 521 0
 375 006a 4869     		ldr	r0, [r1, #20]
 376 006c 00F00F00 		and	r0, r0, #15
 377 0070 0128     		cmp	r0, #1
 378 0072 29D0     		beq	.L49
 379 0074 0228     		cmp	r0, #2
 380 0076 25D0     		beq	.L71
 381              	.L48:
 382              		.loc 1 529 0
 383 0078 C869     		ldr	r0, [r1, #28]
 384 007a 00F00F00 		and	r0, r0, #15
 385 007e 0128     		cmp	r0, #1
 386 0080 1DD0     		beq	.L52
 387 0082 0228     		cmp	r0, #2
 388 0084 19D0     		beq	.L72
 389              	.L51:
 390              		.loc 1 537 0
 391 0086 486A     		ldr	r0, [r1, #36]
 392 0088 00F00F00 		and	r0, r0, #15
 393 008c 0128     		cmp	r0, #1
 394 008e 03D0     		beq	.L55
 395 0090 0228     		cmp	r0, #2
 396 0092 03D1     		bne	.L54
 397              		.loc 1 539 0
 398 0094 42F40052 		orr	r2, r2, #8192
 399              	.LVL30:
ARM GAS  /tmp/ccXmtIij.s 			page 8


 400              	.L55:
 401              		.loc 1 541 0
 402 0098 42F48052 		orr	r2, r2, #4096
 403              	.LVL31:
 404              	.L54:
 405              		.loc 1 583 0
 406 009c 0120     		movs	r0, #1
 407              		.loc 1 582 0
 408 009e 1A62     		str	r2, [r3, #32]
 409              		.loc 1 583 0
 410 00a0 5861     		str	r0, [r3, #20]
 411              		.loc 1 584 0
 412 00a2 8968     		ldr	r1, [r1, #8]
 413 00a4 DA68     		ldr	r2, [r3, #12]
 414              	.LVL32:
 415              		.loc 1 585 0
 416 00a6 0020     		movs	r0, #0
 417              		.loc 1 584 0
 418 00a8 8142     		cmp	r1, r0
 419 00aa 18BF     		it	ne
 420 00ac 42F00102 		orrne	r2, r2, #1
 421              		.loc 1 594 0
 422 00b0 8521     		movs	r1, #133
 423              		.loc 1 584 0
 424 00b2 DA60     		str	r2, [r3, #12]
 425              		.loc 1 585 0
 426 00b4 1861     		str	r0, [r3, #16]
 427              		.loc 1 594 0
 428 00b6 1960     		str	r1, [r3]
 429 00b8 70BD     		pop	{r4, r5, r6, pc}
 430              	.LVL33:
 431              	.L72:
 432              		.loc 1 531 0
 433 00ba 42F40072 		orr	r2, r2, #512
 434              	.LVL34:
 435              	.L52:
 436              		.loc 1 533 0
 437 00be 42F48072 		orr	r2, r2, #256
 438              	.LVL35:
 439 00c2 E0E7     		b	.L51
 440              	.L71:
 441              		.loc 1 523 0
 442 00c4 42F02002 		orr	r2, r2, #32
 443              	.LVL36:
 444              	.L49:
 445              		.loc 1 525 0
 446 00c8 42F01002 		orr	r2, r2, #16
 447              	.LVL37:
 448 00cc D4E7     		b	.L48
 449              	.LVL38:
 450              	.L70:
 451              		.loc 1 430 0
 452 00ce 164B     		ldr	r3, .L75+4
 453 00d0 9842     		cmp	r0, r3
 454 00d2 09D0     		beq	.L73
 455              		.loc 1 439 0
 456 00d4 154B     		ldr	r3, .L75+8
ARM GAS  /tmp/ccXmtIij.s 			page 9


 457 00d6 9842     		cmp	r0, r3
 458 00d8 18D0     		beq	.L74
 459              	.LVL39:
 460              	.L41:
 461              		.loc 1 484 0
 462 00da 2369     		ldr	r3, [r4, #16]
 463 00dc 6168     		ldr	r1, [r4, #4]
 464 00de 46F66802 		movw	r2, #26728
 465 00e2 9A61     		str	r2, [r3, #24]
 466              		.loc 1 486 0
 467 00e4 DA61     		str	r2, [r3, #28]
 468 00e6 9EE7     		b	.L42
 469              	.LVL40:
 470              	.L73:
 471              		.loc 1 431 0
 472 00e8 114B     		ldr	r3, .L75+12
 473 00ea 1A6C     		ldr	r2, [r3, #64]
 474 00ec 42F00202 		orr	r2, r2, #2
 475 00f0 1A64     		str	r2, [r3, #64]
 476              		.loc 1 432 0
 477 00f2 1A6A     		ldr	r2, [r3, #32]
 478 00f4 42F00202 		orr	r2, r2, #2
 479 00f8 0021     		movs	r1, #0
 480 00fa 1A62     		str	r2, [r3, #32]
 481              		.loc 1 433 0
 482 00fc 1D20     		movs	r0, #29
 483              	.LVL41:
 484              	.L69:
 485              		.loc 1 441 0
 486 00fe 1962     		str	r1, [r3, #32]
 487              		.loc 1 442 0
 488 0100 7021     		movs	r1, #112
 489 0102 FFF7FEFF 		bl	nvicEnableVector
 490              	.LVL42:
 491              		.loc 1 444 0
 492 0106 0B4B     		ldr	r3, .L75+16
 493 0108 E360     		str	r3, [r4, #12]
 494 010a E6E7     		b	.L41
 495              	.LVL43:
 496              	.L74:
 497              		.loc 1 440 0
 498 010c 084B     		ldr	r3, .L75+12
 499 010e 1A6C     		ldr	r2, [r3, #64]
 500 0110 42F00402 		orr	r2, r2, #4
 501 0114 1A64     		str	r2, [r3, #64]
 502              		.loc 1 441 0
 503 0116 1A6A     		ldr	r2, [r3, #32]
 504 0118 42F00402 		orr	r2, r2, #4
 505 011c 0021     		movs	r1, #0
 506 011e 1A62     		str	r2, [r3, #32]
 507              		.loc 1 442 0
 508 0120 1E20     		movs	r0, #30
 509              	.LVL44:
 510 0122 ECE7     		b	.L69
 511              	.L76:
 512              		.align	2
 513              	.L75:
ARM GAS  /tmp/ccXmtIij.s 			page 10


 514 0124 00000000 		.word	.LC0
 515 0128 00000000 		.word	.LANCHOR0
 516 012c 00000000 		.word	.LANCHOR1
 517 0130 00380240 		.word	1073887232
 518 0134 00BD0105 		.word	84000000
 519              		.cfi_endproc
 520              	.LFE122:
 521              		.size	pwm_lld_start, .-pwm_lld_start
 522              		.section	.text.pwm_lld_stop,"ax",%progbits
 523              		.align	2
 524              		.p2align 4,,15
 525              		.global	pwm_lld_stop
 526              		.thumb
 527              		.thumb_func
 528              		.type	pwm_lld_stop, %function
 529              	pwm_lld_stop:
 530              	.LFB123:
 531              		.loc 1 605 0
 532              		.cfi_startproc
 533              		@ args = 0, pretend = 0, frame = 0
 534              		@ frame_needed = 0, uses_anonymous_args = 0
 535              	.LVL45:
 536 0000 08B5     		push	{r3, lr}
 537              		.cfi_def_cfa_offset 8
 538              		.cfi_offset 3, -8
 539              		.cfi_offset 14, -4
 540              		.loc 1 608 0
 541 0002 0378     		ldrb	r3, [r0]	@ zero_extendqisi2
 542 0004 022B     		cmp	r3, #2
 543 0006 00D0     		beq	.L83
 544              	.LVL46:
 545              	.L77:
 546 0008 08BD     		pop	{r3, pc}
 547              	.LVL47:
 548              	.L83:
 549              		.loc 1 630 0
 550 000a 0E49     		ldr	r1, .L85
 551              		.loc 1 609 0
 552 000c 0369     		ldr	r3, [r0, #16]
 553 000e 0022     		movs	r2, #0
 554              		.loc 1 630 0
 555 0010 8842     		cmp	r0, r1
 556              		.loc 1 609 0
 557 0012 1A60     		str	r2, [r3]
 558              		.loc 1 610 0
 559 0014 DA60     		str	r2, [r3, #12]
 560              		.loc 1 611 0
 561 0016 1A61     		str	r2, [r3, #16]
 562              		.loc 1 630 0
 563 0018 0BD0     		beq	.L84
 564              		.loc 1 636 0
 565 001a 0B4B     		ldr	r3, .L85+4
 566 001c 9842     		cmp	r0, r3
 567 001e F3D1     		bne	.L77
 568              		.loc 1 637 0
 569 0020 1E20     		movs	r0, #30
 570              	.LVL48:
ARM GAS  /tmp/ccXmtIij.s 			page 11


 571 0022 FFF7FEFF 		bl	nvicDisableVector
 572              	.LVL49:
 573              		.loc 1 638 0
 574 0026 094A     		ldr	r2, .L85+8
 575 0028 136C     		ldr	r3, [r2, #64]
 576 002a 23F00403 		bic	r3, r3, #4
 577 002e 1364     		str	r3, [r2, #64]
 578 0030 EAE7     		b	.L77
 579              	.LVL50:
 580              	.L84:
 581              		.loc 1 631 0
 582 0032 1D20     		movs	r0, #29
 583              	.LVL51:
 584 0034 FFF7FEFF 		bl	nvicDisableVector
 585              	.LVL52:
 586              		.loc 1 632 0
 587 0038 044A     		ldr	r2, .L85+8
 588 003a 136C     		ldr	r3, [r2, #64]
 589 003c 23F00203 		bic	r3, r3, #2
 590 0040 1364     		str	r3, [r2, #64]
 591 0042 08BD     		pop	{r3, pc}
 592              	.L86:
 593              		.align	2
 594              	.L85:
 595 0044 00000000 		.word	.LANCHOR0
 596 0048 00000000 		.word	.LANCHOR1
 597 004c 00380240 		.word	1073887232
 598              		.cfi_endproc
 599              	.LFE123:
 600              		.size	pwm_lld_stop, .-pwm_lld_stop
 601              		.section	.text.pwm_lld_enable_channel,"ax",%progbits
 602              		.align	2
 603              		.p2align 4,,15
 604              		.global	pwm_lld_enable_channel
 605              		.thumb
 606              		.thumb_func
 607              		.type	pwm_lld_enable_channel, %function
 608              	pwm_lld_enable_channel:
 609              	.LFB124:
 610              		.loc 1 677 0
 611              		.cfi_startproc
 612              		@ args = 0, pretend = 0, frame = 0
 613              		@ frame_needed = 0, uses_anonymous_args = 0
 614              		@ link register save eliminated.
 615              	.LVL53:
 616              		.loc 1 682 0
 617 0000 4368     		ldr	r3, [r0, #4]
 618              		.loc 1 677 0
 619 0002 10B4     		push	{r4}
 620              		.cfi_def_cfa_offset 4
 621              		.cfi_offset 4, -4
 622              		.loc 1 679 0
 623 0004 0469     		ldr	r4, [r0, #16]
 624              		.loc 1 682 0
 625 0006 03EBC100 		add	r0, r3, r1, lsl #3
 626              	.LVL54:
 627              		.loc 1 679 0
ARM GAS  /tmp/ccXmtIij.s 			page 12


 628 000a 01F10C03 		add	r3, r1, #12
 629              		.loc 1 682 0
 630 000e 0069     		ldr	r0, [r0, #16]
 631              		.loc 1 679 0
 632 0010 04EB8303 		add	r3, r4, r3, lsl #2
 633 0014 5A60     		str	r2, [r3, #4]
 634              		.loc 1 682 0
 635 0016 40B1     		cbz	r0, .L87
 636              	.LBB2:
 637              		.loc 1 686 0
 638 0018 0223     		movs	r3, #2
 639              		.loc 1 683 0
 640 001a E268     		ldr	r2, [r4, #12]
 641              	.LVL55:
 642              		.loc 1 686 0
 643 001c 8B40     		lsls	r3, r3, r1
 644 001e 1342     		tst	r3, r2
 645 0020 03D1     		bne	.L87
 646              		.loc 1 687 0
 647 0022 1A43     		orrs	r2, r2, r3
 648              	.LVL56:
 649              		.loc 1 688 0
 650 0024 DB43     		mvns	r3, r3
 651              		.loc 1 687 0
 652 0026 E260     		str	r2, [r4, #12]
 653              		.loc 1 688 0
 654 0028 2361     		str	r3, [r4, #16]
 655              	.L87:
 656              	.LBE2:
 657              		.loc 1 691 0
 658 002a 5DF8044B 		ldr	r4, [sp], #4
 659              		.cfi_restore 4
 660              		.cfi_def_cfa_offset 0
 661 002e 7047     		bx	lr
 662              		.cfi_endproc
 663              	.LFE124:
 664              		.size	pwm_lld_enable_channel, .-pwm_lld_enable_channel
 665              		.section	.text.pwm_lld_disable_channel,"ax",%progbits
 666              		.align	2
 667              		.p2align 4,,15
 668              		.global	pwm_lld_disable_channel
 669              		.thumb
 670              		.thumb_func
 671              		.type	pwm_lld_disable_channel, %function
 672              	pwm_lld_disable_channel:
 673              	.LFB125:
 674              		.loc 1 705 0
 675              		.cfi_startproc
 676              		@ args = 0, pretend = 0, frame = 0
 677              		@ frame_needed = 0, uses_anonymous_args = 0
 678              		@ link register save eliminated.
 679              	.LVL57:
 680              		.loc 1 707 0
 681 0000 0369     		ldr	r3, [r0, #16]
 682 0002 01F10C02 		add	r2, r1, #12
 683 0006 03EB8202 		add	r2, r3, r2, lsl #2
 684 000a 0020     		movs	r0, #0
ARM GAS  /tmp/ccXmtIij.s 			page 13


 685              	.LVL58:
 686 000c 5060     		str	r0, [r2, #4]
 687              		.loc 1 708 0
 688 000e D868     		ldr	r0, [r3, #12]
 689 0010 0222     		movs	r2, #2
 690 0012 8A40     		lsls	r2, r2, r1
 691 0014 20EA0202 		bic	r2, r0, r2
 692 0018 DA60     		str	r2, [r3, #12]
 693 001a 7047     		bx	lr
 694              		.cfi_endproc
 695              	.LFE125:
 696              		.size	pwm_lld_disable_channel, .-pwm_lld_disable_channel
 697              		.global	PWMD4
 698              		.global	PWMD3
 699              		.section	.bss.PWMD3,"aw",%nobits
 700              		.align	2
 701              		.set	.LANCHOR0,. + 0
 702              		.type	PWMD3, %object
 703              		.size	PWMD3, 20
 704              	PWMD3:
 705 0000 00000000 		.space	20
 705      00000000 
 705      00000000 
 705      00000000 
 705      00000000 
 706              		.section	.bss.PWMD4,"aw",%nobits
 707              		.align	2
 708              		.set	.LANCHOR1,. + 0
 709              		.type	PWMD4, %object
 710              		.size	PWMD4, 20
 711              	PWMD4:
 712 0000 00000000 		.space	20
 712      00000000 
 712      00000000 
 712      00000000 
 712      00000000 
 713              		.section	.rodata.str1.4,"aMS",%progbits,1
 714              		.align	2
 715              	.LC0:
 716 0000 70776D5F 		.ascii	"pwm_lld_start(), #1\000"
 716      6C6C645F 
 716      73746172 
 716      7428292C 
 716      20233100 
 717              		.text
 718              	.Letext0:
 719              		.file 2 "/usr/include/newlib/machine/_default_types.h"
 720              		.file 3 "/usr/include/newlib/sys/_stdint.h"
 721              		.file 4 "ChibiOS_2.6.5/os/hal/platforms/STM32F4xx/stm32f4xx.h"
 722              		.file 5 "ChibiOS_2.6.5/os/hal/include/pwm.h"
 723              		.file 6 "ChibiOS_2.6.5/os/hal/platforms/STM32/TIMv1/pwm_lld.h"
 724              		.file 7 "ChibiOS_2.6.5/os/hal/platforms/STM32/TIMv1/stm32_tim.h"
 725              		.file 8 "ChibiOS_2.6.5/os/ports/common/ARMCMx/CMSIS/include/core_cm4.h"
 726              		.file 9 "ChibiOS_2.6.5/os/kernel/include/chdebug.h"
 727              		.file 10 "ChibiOS_2.6.5/os/ports/GCC/ARMCMx/chcore_v7m.h"
 728              		.file 11 "ChibiOS_2.6.5/os/ports/common/ARMCMx/nvic.h"
 729              		.section	.debug_info,"",%progbits
ARM GAS  /tmp/ccXmtIij.s 			page 14


 730              	.Ldebug_info0:
 731 0000 85080000 		.4byte	0x885
 732 0004 0400     		.2byte	0x4
 733 0006 00000000 		.4byte	.Ldebug_abbrev0
 734 000a 04       		.byte	0x4
 735 000b 01       		.uleb128 0x1
 736 000c 25000000 		.4byte	.LASF101
 737 0010 01       		.byte	0x1
 738 0011 E9040000 		.4byte	.LASF102
 739 0015 98010000 		.4byte	.LASF103
 740 0019 00000000 		.4byte	.Ldebug_ranges0+0
 741 001d 00000000 		.4byte	0
 742 0021 00000000 		.4byte	.Ldebug_line0
 743 0025 02       		.uleb128 0x2
 744 0026 04       		.byte	0x4
 745 0027 05       		.byte	0x5
 746 0028 696E7400 		.ascii	"int\000"
 747 002c 03       		.uleb128 0x3
 748 002d 04       		.byte	0x4
 749 002e 07       		.byte	0x7
 750 002f 69030000 		.4byte	.LASF0
 751 0033 03       		.uleb128 0x3
 752 0034 01       		.byte	0x1
 753 0035 06       		.byte	0x6
 754 0036 46030000 		.4byte	.LASF1
 755 003a 04       		.uleb128 0x4
 756 003b AD020000 		.4byte	.LASF4
 757 003f 02       		.byte	0x2
 758 0040 1D       		.byte	0x1d
 759 0041 45000000 		.4byte	0x45
 760 0045 03       		.uleb128 0x3
 761 0046 01       		.byte	0x1
 762 0047 08       		.byte	0x8
 763 0048 03030000 		.4byte	.LASF2
 764 004c 03       		.uleb128 0x3
 765 004d 02       		.byte	0x2
 766 004e 05       		.byte	0x5
 767 004f F1000000 		.4byte	.LASF3
 768 0053 04       		.uleb128 0x4
 769 0054 52010000 		.4byte	.LASF5
 770 0058 02       		.byte	0x2
 771 0059 2B       		.byte	0x2b
 772 005a 5E000000 		.4byte	0x5e
 773 005e 03       		.uleb128 0x3
 774 005f 02       		.byte	0x2
 775 0060 07       		.byte	0x7
 776 0061 9F030000 		.4byte	.LASF6
 777 0065 04       		.uleb128 0x4
 778 0066 8D040000 		.4byte	.LASF7
 779 006a 02       		.byte	0x2
 780 006b 3F       		.byte	0x3f
 781 006c 70000000 		.4byte	0x70
 782 0070 03       		.uleb128 0x3
 783 0071 04       		.byte	0x4
 784 0072 05       		.byte	0x5
 785 0073 66020000 		.4byte	.LASF8
 786 0077 04       		.uleb128 0x4
ARM GAS  /tmp/ccXmtIij.s 			page 15


 787 0078 42010000 		.4byte	.LASF9
 788 007c 02       		.byte	0x2
 789 007d 41       		.byte	0x41
 790 007e 82000000 		.4byte	0x82
 791 0082 03       		.uleb128 0x3
 792 0083 04       		.byte	0x4
 793 0084 07       		.byte	0x7
 794 0085 8B020000 		.4byte	.LASF10
 795 0089 03       		.uleb128 0x3
 796 008a 08       		.byte	0x8
 797 008b 05       		.byte	0x5
 798 008c 58020000 		.4byte	.LASF11
 799 0090 03       		.uleb128 0x3
 800 0091 08       		.byte	0x8
 801 0092 07       		.byte	0x7
 802 0093 52030000 		.4byte	.LASF12
 803 0097 04       		.uleb128 0x4
 804 0098 90010000 		.4byte	.LASF13
 805 009c 03       		.byte	0x3
 806 009d 14       		.byte	0x14
 807 009e 3A000000 		.4byte	0x3a
 808 00a2 04       		.uleb128 0x4
 809 00a3 7F030000 		.4byte	.LASF14
 810 00a7 03       		.byte	0x3
 811 00a8 1A       		.byte	0x1a
 812 00a9 53000000 		.4byte	0x53
 813 00ad 04       		.uleb128 0x4
 814 00ae E4030000 		.4byte	.LASF15
 815 00b2 03       		.byte	0x3
 816 00b3 1F       		.byte	0x1f
 817 00b4 65000000 		.4byte	0x65
 818 00b8 04       		.uleb128 0x4
 819 00b9 01020000 		.4byte	.LASF16
 820 00bd 03       		.byte	0x3
 821 00be 20       		.byte	0x20
 822 00bf 77000000 		.4byte	0x77
 823 00c3 03       		.uleb128 0x3
 824 00c4 01       		.byte	0x1
 825 00c5 02       		.byte	0x2
 826 00c6 EC030000 		.4byte	.LASF17
 827 00ca 05       		.uleb128 0x5
 828 00cb B8000000 		.4byte	0xb8
 829 00cf 03       		.uleb128 0x3
 830 00d0 04       		.byte	0x4
 831 00d1 07       		.byte	0x7
 832 00d2 04010000 		.4byte	.LASF18
 833 00d6 06       		.uleb128 0x6
 834 00d7 04       		.byte	0x4
 835 00d8 DC000000 		.4byte	0xdc
 836 00dc 07       		.uleb128 0x7
 837 00dd E1000000 		.4byte	0xe1
 838 00e1 03       		.uleb128 0x3
 839 00e2 01       		.byte	0x1
 840 00e3 08       		.byte	0x8
 841 00e4 C9030000 		.4byte	.LASF19
 842 00e8 08       		.uleb128 0x8
 843 00e9 B8000000 		.4byte	0xb8
ARM GAS  /tmp/ccXmtIij.s 			page 16


 844 00ed F8000000 		.4byte	0xf8
 845 00f1 09       		.uleb128 0x9
 846 00f2 CF000000 		.4byte	0xcf
 847 00f6 01       		.byte	0x1
 848 00f7 00       		.byte	0
 849 00f8 08       		.uleb128 0x8
 850 00f9 B8000000 		.4byte	0xb8
 851 00fd 08010000 		.4byte	0x108
 852 0101 09       		.uleb128 0x9
 853 0102 CF000000 		.4byte	0xcf
 854 0106 03       		.byte	0x3
 855 0107 00       		.byte	0
 856 0108 05       		.uleb128 0x5
 857 0109 AD000000 		.4byte	0xad
 858 010d 0A       		.uleb128 0xa
 859 010e 90       		.byte	0x90
 860 010f 04       		.byte	0x4
 861 0110 5804     		.2byte	0x458
 862 0112 B6020000 		.4byte	0x2b6
 863 0116 0B       		.uleb128 0xb
 864 0117 435200   		.ascii	"CR\000"
 865 011a 04       		.byte	0x4
 866 011b 5A04     		.2byte	0x45a
 867 011d CA000000 		.4byte	0xca
 868 0121 00       		.byte	0
 869 0122 0C       		.uleb128 0xc
 870 0123 97030000 		.4byte	.LASF20
 871 0127 04       		.byte	0x4
 872 0128 5B04     		.2byte	0x45b
 873 012a CA000000 		.4byte	0xca
 874 012e 04       		.byte	0x4
 875 012f 0C       		.uleb128 0xc
 876 0130 73010000 		.4byte	.LASF21
 877 0134 04       		.byte	0x4
 878 0135 5C04     		.2byte	0x45c
 879 0137 CA000000 		.4byte	0xca
 880 013b 08       		.byte	0x8
 881 013c 0B       		.uleb128 0xb
 882 013d 43495200 		.ascii	"CIR\000"
 883 0141 04       		.byte	0x4
 884 0142 5D04     		.2byte	0x45d
 885 0144 CA000000 		.4byte	0xca
 886 0148 0C       		.byte	0xc
 887 0149 0C       		.uleb128 0xc
 888 014a 63010000 		.4byte	.LASF22
 889 014e 04       		.byte	0x4
 890 014f 5E04     		.2byte	0x45e
 891 0151 CA000000 		.4byte	0xca
 892 0155 10       		.byte	0x10
 893 0156 0C       		.uleb128 0xc
 894 0157 76030000 		.4byte	.LASF23
 895 015b 04       		.byte	0x4
 896 015c 5F04     		.2byte	0x45f
 897 015e CA000000 		.4byte	0xca
 898 0162 14       		.byte	0x14
 899 0163 0C       		.uleb128 0xc
 900 0164 D6040000 		.4byte	.LASF24
ARM GAS  /tmp/ccXmtIij.s 			page 17


 901 0168 04       		.byte	0x4
 902 0169 6004     		.2byte	0x460
 903 016b CA000000 		.4byte	0xca
 904 016f 18       		.byte	0x18
 905 0170 0C       		.uleb128 0xc
 906 0171 04040000 		.4byte	.LASF25
 907 0175 04       		.byte	0x4
 908 0176 6104     		.2byte	0x461
 909 0178 B8000000 		.4byte	0xb8
 910 017c 1C       		.byte	0x1c
 911 017d 0C       		.uleb128 0xc
 912 017e 1C000000 		.4byte	.LASF26
 913 0182 04       		.byte	0x4
 914 0183 6204     		.2byte	0x462
 915 0185 CA000000 		.4byte	0xca
 916 0189 20       		.byte	0x20
 917 018a 0C       		.uleb128 0xc
 918 018b A4020000 		.4byte	.LASF27
 919 018f 04       		.byte	0x4
 920 0190 6304     		.2byte	0x463
 921 0192 CA000000 		.4byte	0xca
 922 0196 24       		.byte	0x24
 923 0197 0C       		.uleb128 0xc
 924 0198 0E040000 		.4byte	.LASF28
 925 019c 04       		.byte	0x4
 926 019d 6404     		.2byte	0x464
 927 019f E8000000 		.4byte	0xe8
 928 01a3 28       		.byte	0x28
 929 01a4 0C       		.uleb128 0xc
 930 01a5 64040000 		.4byte	.LASF29
 931 01a9 04       		.byte	0x4
 932 01aa 6504     		.2byte	0x465
 933 01ac CA000000 		.4byte	0xca
 934 01b0 30       		.byte	0x30
 935 01b1 0C       		.uleb128 0xc
 936 01b2 D8000000 		.4byte	.LASF30
 937 01b6 04       		.byte	0x4
 938 01b7 6604     		.2byte	0x466
 939 01b9 CA000000 		.4byte	0xca
 940 01bd 34       		.byte	0x34
 941 01be 0C       		.uleb128 0xc
 942 01bf 31020000 		.4byte	.LASF31
 943 01c3 04       		.byte	0x4
 944 01c4 6704     		.2byte	0x467
 945 01c6 CA000000 		.4byte	0xca
 946 01ca 38       		.byte	0x38
 947 01cb 0C       		.uleb128 0xc
 948 01cc 18040000 		.4byte	.LASF32
 949 01d0 04       		.byte	0x4
 950 01d1 6804     		.2byte	0x468
 951 01d3 B8000000 		.4byte	0xb8
 952 01d7 3C       		.byte	0x3c
 953 01d8 0C       		.uleb128 0xc
 954 01d9 F9010000 		.4byte	.LASF33
 955 01dd 04       		.byte	0x4
 956 01de 6904     		.2byte	0x469
 957 01e0 CA000000 		.4byte	0xca
ARM GAS  /tmp/ccXmtIij.s 			page 18


 958 01e4 40       		.byte	0x40
 959 01e5 0C       		.uleb128 0xc
 960 01e6 2D030000 		.4byte	.LASF34
 961 01ea 04       		.byte	0x4
 962 01eb 6A04     		.2byte	0x46a
 963 01ed CA000000 		.4byte	0xca
 964 01f1 44       		.byte	0x44
 965 01f2 0C       		.uleb128 0xc
 966 01f3 22040000 		.4byte	.LASF35
 967 01f7 04       		.byte	0x4
 968 01f8 6B04     		.2byte	0x46b
 969 01fa E8000000 		.4byte	0xe8
 970 01fe 48       		.byte	0x48
 971 01ff 0C       		.uleb128 0xc
 972 0200 00000000 		.4byte	.LASF36
 973 0204 04       		.byte	0x4
 974 0205 6C04     		.2byte	0x46c
 975 0207 CA000000 		.4byte	0xca
 976 020b 50       		.byte	0x50
 977 020c 0C       		.uleb128 0xc
 978 020d FA030000 		.4byte	.LASF37
 979 0211 04       		.byte	0x4
 980 0212 6D04     		.2byte	0x46d
 981 0214 CA000000 		.4byte	0xca
 982 0218 54       		.byte	0x54
 983 0219 0C       		.uleb128 0xc
 984 021a 78010000 		.4byte	.LASF38
 985 021e 04       		.byte	0x4
 986 021f 6E04     		.2byte	0x46e
 987 0221 CA000000 		.4byte	0xca
 988 0225 58       		.byte	0x58
 989 0226 0C       		.uleb128 0xc
 990 0227 2C040000 		.4byte	.LASF39
 991 022b 04       		.byte	0x4
 992 022c 6F04     		.2byte	0x46f
 993 022e B8000000 		.4byte	0xb8
 994 0232 5C       		.byte	0x5c
 995 0233 0C       		.uleb128 0xc
 996 0234 B2030000 		.4byte	.LASF40
 997 0238 04       		.byte	0x4
 998 0239 7004     		.2byte	0x470
 999 023b CA000000 		.4byte	0xca
 1000 023f 60       		.byte	0x60
 1001 0240 0C       		.uleb128 0xc
 1002 0241 4F050000 		.4byte	.LASF41
 1003 0245 04       		.byte	0x4
 1004 0246 7104     		.2byte	0x471
 1005 0248 CA000000 		.4byte	0xca
 1006 024c 64       		.byte	0x64
 1007 024d 0C       		.uleb128 0xc
 1008 024e 36040000 		.4byte	.LASF42
 1009 0252 04       		.byte	0x4
 1010 0253 7204     		.2byte	0x472
 1011 0255 E8000000 		.4byte	0xe8
 1012 0259 68       		.byte	0x68
 1013 025a 0C       		.uleb128 0xc
 1014 025b 0D010000 		.4byte	.LASF43
ARM GAS  /tmp/ccXmtIij.s 			page 19


 1015 025f 04       		.byte	0x4
 1016 0260 7304     		.2byte	0x473
 1017 0262 CA000000 		.4byte	0xca
 1018 0266 70       		.byte	0x70
 1019 0267 0B       		.uleb128 0xb
 1020 0268 43535200 		.ascii	"CSR\000"
 1021 026c 04       		.byte	0x4
 1022 026d 7404     		.2byte	0x474
 1023 026f CA000000 		.4byte	0xca
 1024 0273 74       		.byte	0x74
 1025 0274 0C       		.uleb128 0xc
 1026 0275 40040000 		.4byte	.LASF44
 1027 0279 04       		.byte	0x4
 1028 027a 7504     		.2byte	0x475
 1029 027c E8000000 		.4byte	0xe8
 1030 0280 78       		.byte	0x78
 1031 0281 0C       		.uleb128 0xc
 1032 0282 5D010000 		.4byte	.LASF45
 1033 0286 04       		.byte	0x4
 1034 0287 7604     		.2byte	0x476
 1035 0289 CA000000 		.4byte	0xca
 1036 028d 80       		.byte	0x80
 1037 028e 0C       		.uleb128 0xc
 1038 028f 12010000 		.4byte	.LASF46
 1039 0293 04       		.byte	0x4
 1040 0294 7704     		.2byte	0x477
 1041 0296 CA000000 		.4byte	0xca
 1042 029a 84       		.byte	0x84
 1043 029b 0C       		.uleb128 0xc
 1044 029c 2B050000 		.4byte	.LASF47
 1045 02a0 04       		.byte	0x4
 1046 02a1 7804     		.2byte	0x478
 1047 02a3 CA000000 		.4byte	0xca
 1048 02a7 88       		.byte	0x88
 1049 02a8 0C       		.uleb128 0xc
 1050 02a9 0F020000 		.4byte	.LASF48
 1051 02ad 04       		.byte	0x4
 1052 02ae 7904     		.2byte	0x479
 1053 02b0 CA000000 		.4byte	0xca
 1054 02b4 8C       		.byte	0x8c
 1055 02b5 00       		.byte	0
 1056 02b6 0D       		.uleb128 0xd
 1057 02b7 39020000 		.4byte	.LASF49
 1058 02bb 04       		.byte	0x4
 1059 02bc 7B04     		.2byte	0x47b
 1060 02be 0D010000 		.4byte	0x10d
 1061 02c2 0E       		.uleb128 0xe
 1062 02c3 01       		.byte	0x1
 1063 02c4 05       		.byte	0x5
 1064 02c5 55       		.byte	0x55
 1065 02c6 DD020000 		.4byte	0x2dd
 1066 02ca 0F       		.uleb128 0xf
 1067 02cb F8020000 		.4byte	.LASF50
 1068 02cf 00       		.sleb128 0
 1069 02d0 0F       		.uleb128 0xf
 1070 02d1 A1040000 		.4byte	.LASF51
 1071 02d5 01       		.sleb128 1
ARM GAS  /tmp/ccXmtIij.s 			page 20


 1072 02d6 0F       		.uleb128 0xf
 1073 02d7 97040000 		.4byte	.LASF52
 1074 02db 02       		.sleb128 2
 1075 02dc 00       		.byte	0
 1076 02dd 04       		.uleb128 0x4
 1077 02de 36050000 		.4byte	.LASF53
 1078 02e2 05       		.byte	0x5
 1079 02e3 59       		.byte	0x59
 1080 02e4 C2020000 		.4byte	0x2c2
 1081 02e8 04       		.uleb128 0x4
 1082 02e9 DA030000 		.4byte	.LASF54
 1083 02ed 05       		.byte	0x5
 1084 02ee 5E       		.byte	0x5e
 1085 02ef F3020000 		.4byte	0x2f3
 1086 02f3 10       		.uleb128 0x10
 1087 02f4 DA030000 		.4byte	.LASF54
 1088 02f8 14       		.byte	0x14
 1089 02f9 06       		.byte	0x6
 1090 02fa 6F01     		.2byte	0x16f
 1091 02fc 42030000 		.4byte	0x342
 1092 0300 0C       		.uleb128 0xc
 1093 0301 E5000000 		.4byte	.LASF55
 1094 0305 06       		.byte	0x6
 1095 0306 7301     		.2byte	0x173
 1096 0308 DD020000 		.4byte	0x2dd
 1097 030c 00       		.byte	0
 1098 030d 0C       		.uleb128 0xc
 1099 030e 6C010000 		.4byte	.LASF56
 1100 0312 06       		.byte	0x6
 1101 0313 7701     		.2byte	0x177
 1102 0315 56050000 		.4byte	0x556
 1103 0319 04       		.byte	0x4
 1104 031a 0C       		.uleb128 0xc
 1105 031b 9D020000 		.4byte	.LASF57
 1106 031f 06       		.byte	0x6
 1107 0320 7B01     		.2byte	0x17b
 1108 0322 A6040000 		.4byte	0x4a6
 1109 0326 08       		.byte	0x8
 1110 0327 0C       		.uleb128 0xc
 1111 0328 4A040000 		.4byte	.LASF58
 1112 032c 06       		.byte	0x6
 1113 032d 8301     		.2byte	0x183
 1114 032f B8000000 		.4byte	0xb8
 1115 0333 0C       		.byte	0xc
 1116 0334 0B       		.uleb128 0xb
 1117 0335 74696D00 		.ascii	"tim\000"
 1118 0339 06       		.byte	0x6
 1119 033a 8701     		.2byte	0x187
 1120 033c 61050000 		.4byte	0x561
 1121 0340 10       		.byte	0x10
 1122 0341 00       		.byte	0
 1123 0342 04       		.uleb128 0x4
 1124 0343 41050000 		.4byte	.LASF59
 1125 0347 05       		.byte	0x5
 1126 0348 65       		.byte	0x65
 1127 0349 4D030000 		.4byte	0x34d
 1128 034d 06       		.uleb128 0x6
ARM GAS  /tmp/ccXmtIij.s 			page 21


 1129 034e 04       		.byte	0x4
 1130 034f 53030000 		.4byte	0x353
 1131 0353 11       		.uleb128 0x11
 1132 0354 5E030000 		.4byte	0x35e
 1133 0358 12       		.uleb128 0x12
 1134 0359 5E030000 		.4byte	0x35e
 1135 035d 00       		.byte	0
 1136 035e 06       		.uleb128 0x6
 1137 035f 04       		.byte	0x4
 1138 0360 E8020000 		.4byte	0x2e8
 1139 0364 0A       		.uleb128 0xa
 1140 0365 60       		.byte	0x60
 1141 0366 07       		.byte	0x7
 1142 0367 9E01     		.2byte	0x19e
 1143 0369 7D040000 		.4byte	0x47d
 1144 036d 0B       		.uleb128 0xb
 1145 036e 43523100 		.ascii	"CR1\000"
 1146 0372 07       		.byte	0x7
 1147 0373 9F01     		.2byte	0x19f
 1148 0375 CA000000 		.4byte	0xca
 1149 0379 00       		.byte	0
 1150 037a 0B       		.uleb128 0xb
 1151 037b 43523200 		.ascii	"CR2\000"
 1152 037f 07       		.byte	0x7
 1153 0380 A001     		.2byte	0x1a0
 1154 0382 CA000000 		.4byte	0xca
 1155 0386 04       		.byte	0x4
 1156 0387 0C       		.uleb128 0xc
 1157 0388 F3020000 		.4byte	.LASF60
 1158 038c 07       		.byte	0x7
 1159 038d A101     		.2byte	0x1a1
 1160 038f CA000000 		.4byte	0xca
 1161 0393 08       		.byte	0x8
 1162 0394 0C       		.uleb128 0xc
 1163 0395 92030000 		.4byte	.LASF61
 1164 0399 07       		.byte	0x7
 1165 039a A201     		.2byte	0x1a2
 1166 039c CA000000 		.4byte	0xca
 1167 03a0 0C       		.byte	0xc
 1168 03a1 0B       		.uleb128 0xb
 1169 03a2 535200   		.ascii	"SR\000"
 1170 03a5 07       		.byte	0x7
 1171 03a6 A301     		.2byte	0x1a3
 1172 03a8 CA000000 		.4byte	0xca
 1173 03ac 10       		.byte	0x10
 1174 03ad 0B       		.uleb128 0xb
 1175 03ae 45475200 		.ascii	"EGR\000"
 1176 03b2 07       		.byte	0x7
 1177 03b3 A401     		.2byte	0x1a4
 1178 03b5 CA000000 		.4byte	0xca
 1179 03b9 14       		.byte	0x14
 1180 03ba 0C       		.uleb128 0xc
 1181 03bb B7020000 		.4byte	.LASF62
 1182 03bf 07       		.byte	0x7
 1183 03c0 A501     		.2byte	0x1a5
 1184 03c2 CA000000 		.4byte	0xca
 1185 03c6 18       		.byte	0x18
ARM GAS  /tmp/ccXmtIij.s 			page 22


 1186 03c7 0C       		.uleb128 0xc
 1187 03c8 EB000000 		.4byte	.LASF63
 1188 03cc 07       		.byte	0x7
 1189 03cd A601     		.2byte	0x1a6
 1190 03cf CA000000 		.4byte	0xca
 1191 03d3 1C       		.byte	0x1c
 1192 03d4 0C       		.uleb128 0xc
 1193 03d5 0A000000 		.4byte	.LASF64
 1194 03d9 07       		.byte	0x7
 1195 03da A701     		.2byte	0x1a7
 1196 03dc CA000000 		.4byte	0xca
 1197 03e0 20       		.byte	0x20
 1198 03e1 0B       		.uleb128 0xb
 1199 03e2 434E5400 		.ascii	"CNT\000"
 1200 03e6 07       		.byte	0x7
 1201 03e7 A801     		.2byte	0x1a8
 1202 03e9 CA000000 		.4byte	0xca
 1203 03ed 24       		.byte	0x24
 1204 03ee 0B       		.uleb128 0xb
 1205 03ef 50534300 		.ascii	"PSC\000"
 1206 03f3 07       		.byte	0x7
 1207 03f4 A901     		.2byte	0x1a9
 1208 03f6 CA000000 		.4byte	0xca
 1209 03fa 28       		.byte	0x28
 1210 03fb 0B       		.uleb128 0xb
 1211 03fc 41525200 		.ascii	"ARR\000"
 1212 0400 07       		.byte	0x7
 1213 0401 AA01     		.2byte	0x1aa
 1214 0403 CA000000 		.4byte	0xca
 1215 0407 2C       		.byte	0x2c
 1216 0408 0B       		.uleb128 0xb
 1217 0409 52435200 		.ascii	"RCR\000"
 1218 040d 07       		.byte	0x7
 1219 040e AB01     		.2byte	0x1ab
 1220 0410 CA000000 		.4byte	0xca
 1221 0414 30       		.byte	0x30
 1222 0415 0B       		.uleb128 0xb
 1223 0416 43435200 		.ascii	"CCR\000"
 1224 041a 07       		.byte	0x7
 1225 041b AC01     		.2byte	0x1ac
 1226 041d 7D040000 		.4byte	0x47d
 1227 0421 34       		.byte	0x34
 1228 0422 0C       		.uleb128 0xc
 1229 0423 28030000 		.4byte	.LASF65
 1230 0427 07       		.byte	0x7
 1231 0428 AD01     		.2byte	0x1ad
 1232 042a CA000000 		.4byte	0xca
 1233 042e 44       		.byte	0x44
 1234 042f 0B       		.uleb128 0xb
 1235 0430 44435200 		.ascii	"DCR\000"
 1236 0434 07       		.byte	0x7
 1237 0435 AE01     		.2byte	0x1ae
 1238 0437 CA000000 		.4byte	0xca
 1239 043b 48       		.byte	0x48
 1240 043c 0C       		.uleb128 0xc
 1241 043d E0000000 		.4byte	.LASF66
 1242 0441 07       		.byte	0x7
ARM GAS  /tmp/ccXmtIij.s 			page 23


 1243 0442 AF01     		.2byte	0x1af
 1244 0444 CA000000 		.4byte	0xca
 1245 0448 4C       		.byte	0x4c
 1246 0449 0B       		.uleb128 0xb
 1247 044a 4F5200   		.ascii	"OR\000"
 1248 044d 07       		.byte	0x7
 1249 044e B001     		.2byte	0x1b0
 1250 0450 CA000000 		.4byte	0xca
 1251 0454 50       		.byte	0x50
 1252 0455 0C       		.uleb128 0xc
 1253 0456 D4020000 		.4byte	.LASF67
 1254 045a 07       		.byte	0x7
 1255 045b B101     		.2byte	0x1b1
 1256 045d CA000000 		.4byte	0xca
 1257 0461 54       		.byte	0x54
 1258 0462 0C       		.uleb128 0xc
 1259 0463 81020000 		.4byte	.LASF68
 1260 0467 07       		.byte	0x7
 1261 0468 B201     		.2byte	0x1b2
 1262 046a CA000000 		.4byte	0xca
 1263 046e 58       		.byte	0x58
 1264 046f 0C       		.uleb128 0xc
 1265 0470 86020000 		.4byte	.LASF69
 1266 0474 07       		.byte	0x7
 1267 0475 B301     		.2byte	0x1b3
 1268 0477 CA000000 		.4byte	0xca
 1269 047b 5C       		.byte	0x5c
 1270 047c 00       		.byte	0
 1271 047d 05       		.uleb128 0x5
 1272 047e F8000000 		.4byte	0xf8
 1273 0482 0D       		.uleb128 0xd
 1274 0483 CE030000 		.4byte	.LASF70
 1275 0487 07       		.byte	0x7
 1276 0488 B401     		.2byte	0x1b4
 1277 048a 64030000 		.4byte	0x364
 1278 048e 0D       		.uleb128 0xd
 1279 048f DF040000 		.4byte	.LASF71
 1280 0493 06       		.byte	0x6
 1281 0494 2001     		.2byte	0x120
 1282 0496 B8000000 		.4byte	0xb8
 1283 049a 0D       		.uleb128 0xd
 1284 049b 35010000 		.4byte	.LASF72
 1285 049f 06       		.byte	0x6
 1286 04a0 2501     		.2byte	0x125
 1287 04a2 97000000 		.4byte	0x97
 1288 04a6 0D       		.uleb128 0xd
 1289 04a7 FB000000 		.4byte	.LASF73
 1290 04ab 06       		.byte	0x6
 1291 04ac 2A01     		.2byte	0x12a
 1292 04ae A2000000 		.4byte	0xa2
 1293 04b2 0A       		.uleb128 0xa
 1294 04b3 08       		.byte	0x8
 1295 04b4 06       		.byte	0x6
 1296 04b5 2F01     		.2byte	0x12f
 1297 04b7 D6040000 		.4byte	0x4d6
 1298 04bb 0C       		.uleb128 0xc
 1299 04bc 4D010000 		.4byte	.LASF74
ARM GAS  /tmp/ccXmtIij.s 			page 24


 1300 04c0 06       		.byte	0x6
 1301 04c1 3301     		.2byte	0x133
 1302 04c3 8E040000 		.4byte	0x48e
 1303 04c7 00       		.byte	0
 1304 04c8 0C       		.uleb128 0xc
 1305 04c9 59050000 		.4byte	.LASF75
 1306 04cd 06       		.byte	0x6
 1307 04ce 3901     		.2byte	0x139
 1308 04d0 42030000 		.4byte	0x342
 1309 04d4 04       		.byte	0x4
 1310 04d5 00       		.byte	0
 1311 04d6 0D       		.uleb128 0xd
 1312 04d7 B9040000 		.4byte	.LASF76
 1313 04db 06       		.byte	0x6
 1314 04dc 3B01     		.2byte	0x13b
 1315 04de B2040000 		.4byte	0x4b2
 1316 04e2 0A       		.uleb128 0xa
 1317 04e3 34       		.byte	0x34
 1318 04e4 06       		.byte	0x6
 1319 04e5 4001     		.2byte	0x140
 1320 04e7 3A050000 		.4byte	0x53a
 1321 04eb 0C       		.uleb128 0xc
 1322 04ec AF040000 		.4byte	.LASF77
 1323 04f0 06       		.byte	0x6
 1324 04f1 4601     		.2byte	0x146
 1325 04f3 B8000000 		.4byte	0xb8
 1326 04f7 00       		.byte	0
 1327 04f8 0C       		.uleb128 0xc
 1328 04f9 9D020000 		.4byte	.LASF57
 1329 04fd 06       		.byte	0x6
 1330 04fe 4C01     		.2byte	0x14c
 1331 0500 A6040000 		.4byte	0x4a6
 1332 0504 04       		.byte	0x4
 1333 0505 0C       		.uleb128 0xc
 1334 0506 59050000 		.4byte	.LASF75
 1335 050a 06       		.byte	0x6
 1336 050b 5201     		.2byte	0x152
 1337 050d 42030000 		.4byte	0x342
 1338 0511 08       		.byte	0x8
 1339 0512 0C       		.uleb128 0xc
 1340 0513 84040000 		.4byte	.LASF78
 1341 0517 06       		.byte	0x6
 1342 0518 5601     		.2byte	0x156
 1343 051a 3A050000 		.4byte	0x53a
 1344 051e 0C       		.byte	0xc
 1345 051f 0B       		.uleb128 0xb
 1346 0520 63723200 		.ascii	"cr2\000"
 1347 0524 06       		.byte	0x6
 1348 0525 5C01     		.2byte	0x15c
 1349 0527 B8000000 		.4byte	0xb8
 1350 052b 2C       		.byte	0x2c
 1351 052c 0C       		.uleb128 0xc
 1352 052d AA040000 		.4byte	.LASF79
 1353 0531 06       		.byte	0x6
 1354 0532 6901     		.2byte	0x169
 1355 0534 B8000000 		.4byte	0xb8
 1356 0538 30       		.byte	0x30
ARM GAS  /tmp/ccXmtIij.s 			page 25


 1357 0539 00       		.byte	0
 1358 053a 08       		.uleb128 0x8
 1359 053b D6040000 		.4byte	0x4d6
 1360 053f 4A050000 		.4byte	0x54a
 1361 0543 09       		.uleb128 0x9
 1362 0544 CF000000 		.4byte	0xcf
 1363 0548 03       		.byte	0x3
 1364 0549 00       		.byte	0
 1365 054a 0D       		.uleb128 0xd
 1366 054b 88030000 		.4byte	.LASF80
 1367 054f 06       		.byte	0x6
 1368 0550 6A01     		.2byte	0x16a
 1369 0552 E2040000 		.4byte	0x4e2
 1370 0556 06       		.uleb128 0x6
 1371 0557 04       		.byte	0x4
 1372 0558 5C050000 		.4byte	0x55c
 1373 055c 07       		.uleb128 0x7
 1374 055d 4A050000 		.4byte	0x54a
 1375 0561 06       		.uleb128 0x6
 1376 0562 04       		.byte	0x4
 1377 0563 82040000 		.4byte	0x482
 1378 0567 13       		.uleb128 0x13
 1379 0568 1D010000 		.4byte	.LASF104
 1380 056c 01       		.byte	0x1
 1381 056d 70       		.byte	0x70
 1382 056e 00000000 		.4byte	.LFB118
 1383 0572 5A000000 		.4byte	.LFE118-.LFB118
 1384 0576 01       		.uleb128 0x1
 1385 0577 9C       		.byte	0x9c
 1386 0578 E7050000 		.4byte	0x5e7
 1387 057c 14       		.uleb128 0x14
 1388 057d EE020000 		.4byte	.LASF85
 1389 0581 01       		.byte	0x1
 1390 0582 70       		.byte	0x70
 1391 0583 5E030000 		.4byte	0x35e
 1392 0587 00000000 		.4byte	.LLST0
 1393 058b 15       		.uleb128 0x15
 1394 058c 737200   		.ascii	"sr\000"
 1395 058f 01       		.byte	0x1
 1396 0590 71       		.byte	0x71
 1397 0591 A2000000 		.4byte	0xa2
 1398 0595 58000000 		.4byte	.LLST1
 1399 0599 16       		.uleb128 0x16
 1400 059a 34000000 		.4byte	.LVL6
 1401 059e AA050000 		.4byte	0x5aa
 1402 05a2 17       		.uleb128 0x17
 1403 05a3 01       		.uleb128 0x1
 1404 05a4 50       		.byte	0x50
 1405 05a5 03       		.uleb128 0x3
 1406 05a6 F3       		.byte	0xf3
 1407 05a7 01       		.uleb128 0x1
 1408 05a8 50       		.byte	0x50
 1409 05a9 00       		.byte	0
 1410 05aa 18       		.uleb128 0x18
 1411 05ab 3C000000 		.4byte	.LVL7
 1412 05af BA050000 		.4byte	0x5ba
 1413 05b3 17       		.uleb128 0x17
ARM GAS  /tmp/ccXmtIij.s 			page 26


 1414 05b4 01       		.uleb128 0x1
 1415 05b5 50       		.byte	0x50
 1416 05b6 02       		.uleb128 0x2
 1417 05b7 75       		.byte	0x75
 1418 05b8 00       		.sleb128 0
 1419 05b9 00       		.byte	0
 1420 05ba 18       		.uleb128 0x18
 1421 05bb 46000000 		.4byte	.LVL8
 1422 05bf CA050000 		.4byte	0x5ca
 1423 05c3 17       		.uleb128 0x17
 1424 05c4 01       		.uleb128 0x1
 1425 05c5 50       		.byte	0x50
 1426 05c6 02       		.uleb128 0x2
 1427 05c7 75       		.byte	0x75
 1428 05c8 00       		.sleb128 0
 1429 05c9 00       		.byte	0
 1430 05ca 18       		.uleb128 0x18
 1431 05cb 50000000 		.4byte	.LVL9
 1432 05cf DA050000 		.4byte	0x5da
 1433 05d3 17       		.uleb128 0x17
 1434 05d4 01       		.uleb128 0x1
 1435 05d5 50       		.byte	0x50
 1436 05d6 02       		.uleb128 0x2
 1437 05d7 75       		.byte	0x75
 1438 05d8 00       		.sleb128 0
 1439 05d9 00       		.byte	0
 1440 05da 19       		.uleb128 0x19
 1441 05db 58000000 		.4byte	.LVL11
 1442 05df 17       		.uleb128 0x17
 1443 05e0 01       		.uleb128 0x1
 1444 05e1 50       		.byte	0x50
 1445 05e2 02       		.uleb128 0x2
 1446 05e3 75       		.byte	0x75
 1447 05e4 00       		.sleb128 0
 1448 05e5 00       		.byte	0
 1449 05e6 00       		.byte	0
 1450 05e7 1A       		.uleb128 0x1a
 1451 05e8 CB020000 		.4byte	.LASF81
 1452 05ec 01       		.byte	0x1
 1453 05ed D8       		.byte	0xd8
 1454 05ee 00000000 		.4byte	.LFB119
 1455 05f2 1C000000 		.4byte	.LFE119-.LFB119
 1456 05f6 01       		.uleb128 0x1
 1457 05f7 9C       		.byte	0x9c
 1458 05f8 2F060000 		.4byte	0x62f
 1459 05fc 1B       		.uleb128 0x1b
 1460 05fd 06000000 		.4byte	.LVL12
 1461 0601 2B080000 		.4byte	0x82b
 1462 0605 1C       		.uleb128 0x1c
 1463 0606 0C000000 		.4byte	.LVL13
 1464 060a 67050000 		.4byte	0x567
 1465 060e 1C060000 		.4byte	0x61c
 1466 0612 17       		.uleb128 0x17
 1467 0613 01       		.uleb128 0x1
 1468 0614 50       		.byte	0x50
 1469 0615 05       		.uleb128 0x5
 1470 0616 03       		.byte	0x3
ARM GAS  /tmp/ccXmtIij.s 			page 27


 1471 0617 00000000 		.4byte	.LANCHOR0
 1472 061b 00       		.byte	0
 1473 061c 1B       		.uleb128 0x1b
 1474 061d 10000000 		.4byte	.LVL14
 1475 0621 32080000 		.4byte	0x832
 1476 0625 1D       		.uleb128 0x1d
 1477 0626 18000000 		.4byte	.LVL15
 1478 062a 39080000 		.4byte	0x839
 1479 062e 00       		.byte	0
 1480 062f 1A       		.uleb128 0x1a
 1481 0630 DA020000 		.4byte	.LASF82
 1482 0634 01       		.byte	0x1
 1483 0635 EB       		.byte	0xeb
 1484 0636 00000000 		.4byte	.LFB120
 1485 063a 1C000000 		.4byte	.LFE120-.LFB120
 1486 063e 01       		.uleb128 0x1
 1487 063f 9C       		.byte	0x9c
 1488 0640 77060000 		.4byte	0x677
 1489 0644 1B       		.uleb128 0x1b
 1490 0645 06000000 		.4byte	.LVL16
 1491 0649 2B080000 		.4byte	0x82b
 1492 064d 1C       		.uleb128 0x1c
 1493 064e 0C000000 		.4byte	.LVL17
 1494 0652 67050000 		.4byte	0x567
 1495 0656 64060000 		.4byte	0x664
 1496 065a 17       		.uleb128 0x17
 1497 065b 01       		.uleb128 0x1
 1498 065c 50       		.byte	0x50
 1499 065d 05       		.uleb128 0x5
 1500 065e 03       		.byte	0x3
 1501 065f 00000000 		.4byte	.LANCHOR1
 1502 0663 00       		.byte	0
 1503 0664 1B       		.uleb128 0x1b
 1504 0665 10000000 		.4byte	.LVL18
 1505 0669 32080000 		.4byte	0x832
 1506 066d 1D       		.uleb128 0x1d
 1507 066e 18000000 		.4byte	.LVL19
 1508 0672 39080000 		.4byte	0x839
 1509 0676 00       		.byte	0
 1510 0677 1E       		.uleb128 0x1e
 1511 0678 BC030000 		.4byte	.LASF83
 1512 067c 01       		.byte	0x1
 1513 067d 5901     		.2byte	0x159
 1514 067f 00000000 		.4byte	.LFB121
 1515 0683 2C000000 		.4byte	.LFE121-.LFB121
 1516 0687 01       		.uleb128 0x1
 1517 0688 9C       		.byte	0x9c
 1518 0689 B2060000 		.4byte	0x6b2
 1519 068d 1C       		.uleb128 0x1c
 1520 068e 0C000000 		.4byte	.LVL20
 1521 0692 41080000 		.4byte	0x841
 1522 0696 A1060000 		.4byte	0x6a1
 1523 069a 17       		.uleb128 0x17
 1524 069b 01       		.uleb128 0x1
 1525 069c 50       		.byte	0x50
 1526 069d 02       		.uleb128 0x2
 1527 069e 75       		.byte	0x75
ARM GAS  /tmp/ccXmtIij.s 			page 28


 1528 069f 00       		.sleb128 0
 1529 06a0 00       		.byte	0
 1530 06a1 1F       		.uleb128 0x1f
 1531 06a2 16000000 		.4byte	.LVL21
 1532 06a6 41080000 		.4byte	0x841
 1533 06aa 17       		.uleb128 0x17
 1534 06ab 01       		.uleb128 0x1
 1535 06ac 50       		.byte	0x50
 1536 06ad 02       		.uleb128 0x2
 1537 06ae 74       		.byte	0x74
 1538 06af 00       		.sleb128 0
 1539 06b0 00       		.byte	0
 1540 06b1 00       		.byte	0
 1541 06b2 1E       		.uleb128 0x1e
 1542 06b3 BD020000 		.4byte	.LASF84
 1543 06b7 01       		.byte	0x1
 1544 06b8 8F01     		.2byte	0x18f
 1545 06ba 00000000 		.4byte	.LFB122
 1546 06be 38010000 		.4byte	.LFE122-.LFB122
 1547 06c2 01       		.uleb128 0x1
 1548 06c3 9C       		.byte	0x9c
 1549 06c4 20070000 		.4byte	0x720
 1550 06c8 20       		.uleb128 0x20
 1551 06c9 EE020000 		.4byte	.LASF85
 1552 06cd 01       		.byte	0x1
 1553 06ce 8F01     		.2byte	0x18f
 1554 06d0 5E030000 		.4byte	0x35e
 1555 06d4 76000000 		.4byte	.LLST2
 1556 06d8 21       		.uleb128 0x21
 1557 06d9 70736300 		.ascii	"psc\000"
 1558 06dd 01       		.byte	0x1
 1559 06de 9001     		.2byte	0x190
 1560 06e0 B8000000 		.4byte	0xb8
 1561 06e4 E4000000 		.4byte	.LLST3
 1562 06e8 22       		.uleb128 0x22
 1563 06e9 0A020000 		.4byte	.LASF86
 1564 06ed 01       		.byte	0x1
 1565 06ee 9101     		.2byte	0x191
 1566 06f0 A2000000 		.4byte	0xa2
 1567 06f4 04010000 		.4byte	.LLST4
 1568 06f8 1C       		.uleb128 0x1c
 1569 06f9 44000000 		.4byte	.LVL25
 1570 06fd 52080000 		.4byte	0x852
 1571 0701 0F070000 		.4byte	0x70f
 1572 0705 17       		.uleb128 0x17
 1573 0706 01       		.uleb128 0x1
 1574 0707 50       		.byte	0x50
 1575 0708 05       		.uleb128 0x5
 1576 0709 03       		.byte	0x3
 1577 070a 00000000 		.4byte	.LC0
 1578 070e 00       		.byte	0
 1579 070f 1F       		.uleb128 0x1f
 1580 0710 06010000 		.4byte	.LVL42
 1581 0714 63080000 		.4byte	0x863
 1582 0718 17       		.uleb128 0x17
 1583 0719 01       		.uleb128 0x1
 1584 071a 51       		.byte	0x51
ARM GAS  /tmp/ccXmtIij.s 			page 29


 1585 071b 02       		.uleb128 0x2
 1586 071c 08       		.byte	0x8
 1587 071d 70       		.byte	0x70
 1588 071e 00       		.byte	0
 1589 071f 00       		.byte	0
 1590 0720 1E       		.uleb128 0x1e
 1591 0721 0F000000 		.4byte	.LASF87
 1592 0725 01       		.byte	0x1
 1593 0726 5D02     		.2byte	0x25d
 1594 0728 00000000 		.4byte	.LFB123
 1595 072c 50000000 		.4byte	.LFE123-.LFB123
 1596 0730 01       		.uleb128 0x1
 1597 0731 9C       		.byte	0x9c
 1598 0732 69070000 		.4byte	0x769
 1599 0736 20       		.uleb128 0x20
 1600 0737 EE020000 		.4byte	.LASF85
 1601 073b 01       		.byte	0x1
 1602 073c 5D02     		.2byte	0x25d
 1603 073e 5E030000 		.4byte	0x35e
 1604 0742 2E010000 		.4byte	.LLST5
 1605 0746 1C       		.uleb128 0x1c
 1606 0747 26000000 		.4byte	.LVL49
 1607 074b 7A080000 		.4byte	0x87a
 1608 074f 59070000 		.4byte	0x759
 1609 0753 17       		.uleb128 0x17
 1610 0754 01       		.uleb128 0x1
 1611 0755 50       		.byte	0x50
 1612 0756 01       		.uleb128 0x1
 1613 0757 4E       		.byte	0x4e
 1614 0758 00       		.byte	0
 1615 0759 1F       		.uleb128 0x1f
 1616 075a 38000000 		.4byte	.LVL52
 1617 075e 7A080000 		.4byte	0x87a
 1618 0762 17       		.uleb128 0x17
 1619 0763 01       		.uleb128 0x1
 1620 0764 50       		.byte	0x50
 1621 0765 01       		.uleb128 0x1
 1622 0766 4D       		.byte	0x4d
 1623 0767 00       		.byte	0
 1624 0768 00       		.byte	0
 1625 0769 1E       		.uleb128 0x1e
 1626 076a 11030000 		.4byte	.LASF88
 1627 076e 01       		.byte	0x1
 1628 076f A302     		.2byte	0x2a3
 1629 0771 00000000 		.4byte	.LFB124
 1630 0775 30000000 		.4byte	.LFE124-.LFB124
 1631 0779 01       		.uleb128 0x1
 1632 077a 9C       		.byte	0x9c
 1633 077b C8070000 		.4byte	0x7c8
 1634 077f 20       		.uleb128 0x20
 1635 0780 EE020000 		.4byte	.LASF85
 1636 0784 01       		.byte	0x1
 1637 0785 A302     		.2byte	0x2a3
 1638 0787 5E030000 		.4byte	0x35e
 1639 078b 81010000 		.4byte	.LLST6
 1640 078f 23       		.uleb128 0x23
 1641 0790 F2030000 		.4byte	.LASF89
ARM GAS  /tmp/ccXmtIij.s 			page 30


 1642 0794 01       		.byte	0x1
 1643 0795 A402     		.2byte	0x2a4
 1644 0797 9A040000 		.4byte	0x49a
 1645 079b 01       		.uleb128 0x1
 1646 079c 51       		.byte	0x51
 1647 079d 20       		.uleb128 0x20
 1648 079e 17020000 		.4byte	.LASF90
 1649 07a2 01       		.byte	0x1
 1650 07a3 A502     		.2byte	0x2a5
 1651 07a5 A6040000 		.4byte	0x4a6
 1652 07a9 A2010000 		.4byte	.LLST7
 1653 07ad 24       		.uleb128 0x24
 1654 07ae 18000000 		.4byte	.LBB2
 1655 07b2 12000000 		.4byte	.LBE2-.LBB2
 1656 07b6 22       		.uleb128 0x22
 1657 07b7 AA040000 		.4byte	.LASF79
 1658 07bb 01       		.byte	0x1
 1659 07bc AB02     		.2byte	0x2ab
 1660 07be B8000000 		.4byte	0xb8
 1661 07c2 C3010000 		.4byte	.LLST8
 1662 07c6 00       		.byte	0
 1663 07c7 00       		.byte	0
 1664 07c8 1E       		.uleb128 0x1e
 1665 07c9 6C040000 		.4byte	.LASF91
 1666 07cd 01       		.byte	0x1
 1667 07ce C102     		.2byte	0x2c1
 1668 07d0 00000000 		.4byte	.LFB125
 1669 07d4 1C000000 		.4byte	.LFE125-.LFB125
 1670 07d8 01       		.uleb128 0x1
 1671 07d9 9C       		.byte	0x9c
 1672 07da FD070000 		.4byte	0x7fd
 1673 07de 20       		.uleb128 0x20
 1674 07df EE020000 		.4byte	.LASF85
 1675 07e3 01       		.byte	0x1
 1676 07e4 C102     		.2byte	0x2c1
 1677 07e6 5E030000 		.4byte	0x35e
 1678 07ea D6010000 		.4byte	.LLST9
 1679 07ee 23       		.uleb128 0x23
 1680 07ef F2030000 		.4byte	.LASF89
 1681 07f3 01       		.byte	0x1
 1682 07f4 C102     		.2byte	0x2c1
 1683 07f6 9A040000 		.4byte	0x49a
 1684 07fa 01       		.uleb128 0x1
 1685 07fb 51       		.byte	0x51
 1686 07fc 00       		.byte	0
 1687 07fd 25       		.uleb128 0x25
 1688 07fe 1E050000 		.4byte	.LASF92
 1689 0802 08       		.byte	0x8
 1690 0803 9806     		.2byte	0x698
 1691 0805 08010000 		.4byte	0x108
 1692 0809 26       		.uleb128 0x26
 1693 080a CA040000 		.4byte	.LASF93
 1694 080e 01       		.byte	0x1
 1695 080f 3B       		.byte	0x3b
 1696 0810 E8020000 		.4byte	0x2e8
 1697 0814 05       		.uleb128 0x5
 1698 0815 03       		.byte	0x3
ARM GAS  /tmp/ccXmtIij.s 			page 31


 1699 0816 00000000 		.4byte	PWMD3
 1700 081a 26       		.uleb128 0x26
 1701 081b D0040000 		.4byte	.LASF94
 1702 081f 01       		.byte	0x1
 1703 0820 43       		.byte	0x43
 1704 0821 E8020000 		.4byte	0x2e8
 1705 0825 05       		.uleb128 0x5
 1706 0826 03       		.byte	0x3
 1707 0827 00000000 		.4byte	PWMD4
 1708 082b 27       		.uleb128 0x27
 1709 082c 50040000 		.4byte	.LASF95
 1710 0830 09       		.byte	0x9
 1711 0831 EB       		.byte	0xeb
 1712 0832 27       		.uleb128 0x27
 1713 0833 1D020000 		.4byte	.LASF96
 1714 0837 09       		.byte	0x9
 1715 0838 EC       		.byte	0xec
 1716 0839 28       		.uleb128 0x28
 1717 083a 45020000 		.4byte	.LASF97
 1718 083e 0A       		.byte	0xa
 1719 083f 0302     		.2byte	0x203
 1720 0841 29       		.uleb128 0x29
 1721 0842 82010000 		.4byte	.LASF98
 1722 0846 05       		.byte	0x5
 1723 0847 F3       		.byte	0xf3
 1724 0848 52080000 		.4byte	0x852
 1725 084c 12       		.uleb128 0x12
 1726 084d 5E030000 		.4byte	0x35e
 1727 0851 00       		.byte	0
 1728 0852 29       		.uleb128 0x29
 1729 0853 E3020000 		.4byte	.LASF99
 1730 0857 09       		.byte	0x9
 1731 0858 F6       		.byte	0xf6
 1732 0859 63080000 		.4byte	0x863
 1733 085d 12       		.uleb128 0x12
 1734 085e D6000000 		.4byte	0xd6
 1735 0862 00       		.byte	0
 1736 0863 2A       		.uleb128 0x2a
 1737 0864 35030000 		.4byte	.LASF100
 1738 0868 0B       		.byte	0xb
 1739 0869 2301     		.2byte	0x123
 1740 086b 7A080000 		.4byte	0x87a
 1741 086f 12       		.uleb128 0x12
 1742 0870 B8000000 		.4byte	0xb8
 1743 0874 12       		.uleb128 0x12
 1744 0875 B8000000 		.4byte	0xb8
 1745 0879 00       		.byte	0
 1746 087a 2B       		.uleb128 0x2b
 1747 087b 6F020000 		.4byte	.LASF105
 1748 087f 0B       		.byte	0xb
 1749 0880 2401     		.2byte	0x124
 1750 0882 12       		.uleb128 0x12
 1751 0883 B8000000 		.4byte	0xb8
 1752 0887 00       		.byte	0
 1753 0888 00       		.byte	0
 1754              		.section	.debug_abbrev,"",%progbits
 1755              	.Ldebug_abbrev0:
ARM GAS  /tmp/ccXmtIij.s 			page 32


 1756 0000 01       		.uleb128 0x1
 1757 0001 11       		.uleb128 0x11
 1758 0002 01       		.byte	0x1
 1759 0003 25       		.uleb128 0x25
 1760 0004 0E       		.uleb128 0xe
 1761 0005 13       		.uleb128 0x13
 1762 0006 0B       		.uleb128 0xb
 1763 0007 03       		.uleb128 0x3
 1764 0008 0E       		.uleb128 0xe
 1765 0009 1B       		.uleb128 0x1b
 1766 000a 0E       		.uleb128 0xe
 1767 000b 55       		.uleb128 0x55
 1768 000c 17       		.uleb128 0x17
 1769 000d 11       		.uleb128 0x11
 1770 000e 01       		.uleb128 0x1
 1771 000f 10       		.uleb128 0x10
 1772 0010 17       		.uleb128 0x17
 1773 0011 00       		.byte	0
 1774 0012 00       		.byte	0
 1775 0013 02       		.uleb128 0x2
 1776 0014 24       		.uleb128 0x24
 1777 0015 00       		.byte	0
 1778 0016 0B       		.uleb128 0xb
 1779 0017 0B       		.uleb128 0xb
 1780 0018 3E       		.uleb128 0x3e
 1781 0019 0B       		.uleb128 0xb
 1782 001a 03       		.uleb128 0x3
 1783 001b 08       		.uleb128 0x8
 1784 001c 00       		.byte	0
 1785 001d 00       		.byte	0
 1786 001e 03       		.uleb128 0x3
 1787 001f 24       		.uleb128 0x24
 1788 0020 00       		.byte	0
 1789 0021 0B       		.uleb128 0xb
 1790 0022 0B       		.uleb128 0xb
 1791 0023 3E       		.uleb128 0x3e
 1792 0024 0B       		.uleb128 0xb
 1793 0025 03       		.uleb128 0x3
 1794 0026 0E       		.uleb128 0xe
 1795 0027 00       		.byte	0
 1796 0028 00       		.byte	0
 1797 0029 04       		.uleb128 0x4
 1798 002a 16       		.uleb128 0x16
 1799 002b 00       		.byte	0
 1800 002c 03       		.uleb128 0x3
 1801 002d 0E       		.uleb128 0xe
 1802 002e 3A       		.uleb128 0x3a
 1803 002f 0B       		.uleb128 0xb
 1804 0030 3B       		.uleb128 0x3b
 1805 0031 0B       		.uleb128 0xb
 1806 0032 49       		.uleb128 0x49
 1807 0033 13       		.uleb128 0x13
 1808 0034 00       		.byte	0
 1809 0035 00       		.byte	0
 1810 0036 05       		.uleb128 0x5
 1811 0037 35       		.uleb128 0x35
 1812 0038 00       		.byte	0
ARM GAS  /tmp/ccXmtIij.s 			page 33


 1813 0039 49       		.uleb128 0x49
 1814 003a 13       		.uleb128 0x13
 1815 003b 00       		.byte	0
 1816 003c 00       		.byte	0
 1817 003d 06       		.uleb128 0x6
 1818 003e 0F       		.uleb128 0xf
 1819 003f 00       		.byte	0
 1820 0040 0B       		.uleb128 0xb
 1821 0041 0B       		.uleb128 0xb
 1822 0042 49       		.uleb128 0x49
 1823 0043 13       		.uleb128 0x13
 1824 0044 00       		.byte	0
 1825 0045 00       		.byte	0
 1826 0046 07       		.uleb128 0x7
 1827 0047 26       		.uleb128 0x26
 1828 0048 00       		.byte	0
 1829 0049 49       		.uleb128 0x49
 1830 004a 13       		.uleb128 0x13
 1831 004b 00       		.byte	0
 1832 004c 00       		.byte	0
 1833 004d 08       		.uleb128 0x8
 1834 004e 01       		.uleb128 0x1
 1835 004f 01       		.byte	0x1
 1836 0050 49       		.uleb128 0x49
 1837 0051 13       		.uleb128 0x13
 1838 0052 01       		.uleb128 0x1
 1839 0053 13       		.uleb128 0x13
 1840 0054 00       		.byte	0
 1841 0055 00       		.byte	0
 1842 0056 09       		.uleb128 0x9
 1843 0057 21       		.uleb128 0x21
 1844 0058 00       		.byte	0
 1845 0059 49       		.uleb128 0x49
 1846 005a 13       		.uleb128 0x13
 1847 005b 2F       		.uleb128 0x2f
 1848 005c 0B       		.uleb128 0xb
 1849 005d 00       		.byte	0
 1850 005e 00       		.byte	0
 1851 005f 0A       		.uleb128 0xa
 1852 0060 13       		.uleb128 0x13
 1853 0061 01       		.byte	0x1
 1854 0062 0B       		.uleb128 0xb
 1855 0063 0B       		.uleb128 0xb
 1856 0064 3A       		.uleb128 0x3a
 1857 0065 0B       		.uleb128 0xb
 1858 0066 3B       		.uleb128 0x3b
 1859 0067 05       		.uleb128 0x5
 1860 0068 01       		.uleb128 0x1
 1861 0069 13       		.uleb128 0x13
 1862 006a 00       		.byte	0
 1863 006b 00       		.byte	0
 1864 006c 0B       		.uleb128 0xb
 1865 006d 0D       		.uleb128 0xd
 1866 006e 00       		.byte	0
 1867 006f 03       		.uleb128 0x3
 1868 0070 08       		.uleb128 0x8
 1869 0071 3A       		.uleb128 0x3a
ARM GAS  /tmp/ccXmtIij.s 			page 34


 1870 0072 0B       		.uleb128 0xb
 1871 0073 3B       		.uleb128 0x3b
 1872 0074 05       		.uleb128 0x5
 1873 0075 49       		.uleb128 0x49
 1874 0076 13       		.uleb128 0x13
 1875 0077 38       		.uleb128 0x38
 1876 0078 0B       		.uleb128 0xb
 1877 0079 00       		.byte	0
 1878 007a 00       		.byte	0
 1879 007b 0C       		.uleb128 0xc
 1880 007c 0D       		.uleb128 0xd
 1881 007d 00       		.byte	0
 1882 007e 03       		.uleb128 0x3
 1883 007f 0E       		.uleb128 0xe
 1884 0080 3A       		.uleb128 0x3a
 1885 0081 0B       		.uleb128 0xb
 1886 0082 3B       		.uleb128 0x3b
 1887 0083 05       		.uleb128 0x5
 1888 0084 49       		.uleb128 0x49
 1889 0085 13       		.uleb128 0x13
 1890 0086 38       		.uleb128 0x38
 1891 0087 0B       		.uleb128 0xb
 1892 0088 00       		.byte	0
 1893 0089 00       		.byte	0
 1894 008a 0D       		.uleb128 0xd
 1895 008b 16       		.uleb128 0x16
 1896 008c 00       		.byte	0
 1897 008d 03       		.uleb128 0x3
 1898 008e 0E       		.uleb128 0xe
 1899 008f 3A       		.uleb128 0x3a
 1900 0090 0B       		.uleb128 0xb
 1901 0091 3B       		.uleb128 0x3b
 1902 0092 05       		.uleb128 0x5
 1903 0093 49       		.uleb128 0x49
 1904 0094 13       		.uleb128 0x13
 1905 0095 00       		.byte	0
 1906 0096 00       		.byte	0
 1907 0097 0E       		.uleb128 0xe
 1908 0098 04       		.uleb128 0x4
 1909 0099 01       		.byte	0x1
 1910 009a 0B       		.uleb128 0xb
 1911 009b 0B       		.uleb128 0xb
 1912 009c 3A       		.uleb128 0x3a
 1913 009d 0B       		.uleb128 0xb
 1914 009e 3B       		.uleb128 0x3b
 1915 009f 0B       		.uleb128 0xb
 1916 00a0 01       		.uleb128 0x1
 1917 00a1 13       		.uleb128 0x13
 1918 00a2 00       		.byte	0
 1919 00a3 00       		.byte	0
 1920 00a4 0F       		.uleb128 0xf
 1921 00a5 28       		.uleb128 0x28
 1922 00a6 00       		.byte	0
 1923 00a7 03       		.uleb128 0x3
 1924 00a8 0E       		.uleb128 0xe
 1925 00a9 1C       		.uleb128 0x1c
 1926 00aa 0D       		.uleb128 0xd
ARM GAS  /tmp/ccXmtIij.s 			page 35


 1927 00ab 00       		.byte	0
 1928 00ac 00       		.byte	0
 1929 00ad 10       		.uleb128 0x10
 1930 00ae 13       		.uleb128 0x13
 1931 00af 01       		.byte	0x1
 1932 00b0 03       		.uleb128 0x3
 1933 00b1 0E       		.uleb128 0xe
 1934 00b2 0B       		.uleb128 0xb
 1935 00b3 0B       		.uleb128 0xb
 1936 00b4 3A       		.uleb128 0x3a
 1937 00b5 0B       		.uleb128 0xb
 1938 00b6 3B       		.uleb128 0x3b
 1939 00b7 05       		.uleb128 0x5
 1940 00b8 01       		.uleb128 0x1
 1941 00b9 13       		.uleb128 0x13
 1942 00ba 00       		.byte	0
 1943 00bb 00       		.byte	0
 1944 00bc 11       		.uleb128 0x11
 1945 00bd 15       		.uleb128 0x15
 1946 00be 01       		.byte	0x1
 1947 00bf 27       		.uleb128 0x27
 1948 00c0 19       		.uleb128 0x19
 1949 00c1 01       		.uleb128 0x1
 1950 00c2 13       		.uleb128 0x13
 1951 00c3 00       		.byte	0
 1952 00c4 00       		.byte	0
 1953 00c5 12       		.uleb128 0x12
 1954 00c6 05       		.uleb128 0x5
 1955 00c7 00       		.byte	0
 1956 00c8 49       		.uleb128 0x49
 1957 00c9 13       		.uleb128 0x13
 1958 00ca 00       		.byte	0
 1959 00cb 00       		.byte	0
 1960 00cc 13       		.uleb128 0x13
 1961 00cd 2E       		.uleb128 0x2e
 1962 00ce 01       		.byte	0x1
 1963 00cf 03       		.uleb128 0x3
 1964 00d0 0E       		.uleb128 0xe
 1965 00d1 3A       		.uleb128 0x3a
 1966 00d2 0B       		.uleb128 0xb
 1967 00d3 3B       		.uleb128 0x3b
 1968 00d4 0B       		.uleb128 0xb
 1969 00d5 27       		.uleb128 0x27
 1970 00d6 19       		.uleb128 0x19
 1971 00d7 11       		.uleb128 0x11
 1972 00d8 01       		.uleb128 0x1
 1973 00d9 12       		.uleb128 0x12
 1974 00da 06       		.uleb128 0x6
 1975 00db 40       		.uleb128 0x40
 1976 00dc 18       		.uleb128 0x18
 1977 00dd 9742     		.uleb128 0x2117
 1978 00df 19       		.uleb128 0x19
 1979 00e0 01       		.uleb128 0x1
 1980 00e1 13       		.uleb128 0x13
 1981 00e2 00       		.byte	0
 1982 00e3 00       		.byte	0
 1983 00e4 14       		.uleb128 0x14
ARM GAS  /tmp/ccXmtIij.s 			page 36


 1984 00e5 05       		.uleb128 0x5
 1985 00e6 00       		.byte	0
 1986 00e7 03       		.uleb128 0x3
 1987 00e8 0E       		.uleb128 0xe
 1988 00e9 3A       		.uleb128 0x3a
 1989 00ea 0B       		.uleb128 0xb
 1990 00eb 3B       		.uleb128 0x3b
 1991 00ec 0B       		.uleb128 0xb
 1992 00ed 49       		.uleb128 0x49
 1993 00ee 13       		.uleb128 0x13
 1994 00ef 02       		.uleb128 0x2
 1995 00f0 17       		.uleb128 0x17
 1996 00f1 00       		.byte	0
 1997 00f2 00       		.byte	0
 1998 00f3 15       		.uleb128 0x15
 1999 00f4 34       		.uleb128 0x34
 2000 00f5 00       		.byte	0
 2001 00f6 03       		.uleb128 0x3
 2002 00f7 08       		.uleb128 0x8
 2003 00f8 3A       		.uleb128 0x3a
 2004 00f9 0B       		.uleb128 0xb
 2005 00fa 3B       		.uleb128 0x3b
 2006 00fb 0B       		.uleb128 0xb
 2007 00fc 49       		.uleb128 0x49
 2008 00fd 13       		.uleb128 0x13
 2009 00fe 02       		.uleb128 0x2
 2010 00ff 17       		.uleb128 0x17
 2011 0100 00       		.byte	0
 2012 0101 00       		.byte	0
 2013 0102 16       		.uleb128 0x16
 2014 0103 898201   		.uleb128 0x4109
 2015 0106 01       		.byte	0x1
 2016 0107 11       		.uleb128 0x11
 2017 0108 01       		.uleb128 0x1
 2018 0109 9542     		.uleb128 0x2115
 2019 010b 19       		.uleb128 0x19
 2020 010c 01       		.uleb128 0x1
 2021 010d 13       		.uleb128 0x13
 2022 010e 00       		.byte	0
 2023 010f 00       		.byte	0
 2024 0110 17       		.uleb128 0x17
 2025 0111 8A8201   		.uleb128 0x410a
 2026 0114 00       		.byte	0
 2027 0115 02       		.uleb128 0x2
 2028 0116 18       		.uleb128 0x18
 2029 0117 9142     		.uleb128 0x2111
 2030 0119 18       		.uleb128 0x18
 2031 011a 00       		.byte	0
 2032 011b 00       		.byte	0
 2033 011c 18       		.uleb128 0x18
 2034 011d 898201   		.uleb128 0x4109
 2035 0120 01       		.byte	0x1
 2036 0121 11       		.uleb128 0x11
 2037 0122 01       		.uleb128 0x1
 2038 0123 01       		.uleb128 0x1
 2039 0124 13       		.uleb128 0x13
 2040 0125 00       		.byte	0
ARM GAS  /tmp/ccXmtIij.s 			page 37


 2041 0126 00       		.byte	0
 2042 0127 19       		.uleb128 0x19
 2043 0128 898201   		.uleb128 0x4109
 2044 012b 01       		.byte	0x1
 2045 012c 11       		.uleb128 0x11
 2046 012d 01       		.uleb128 0x1
 2047 012e 00       		.byte	0
 2048 012f 00       		.byte	0
 2049 0130 1A       		.uleb128 0x1a
 2050 0131 2E       		.uleb128 0x2e
 2051 0132 01       		.byte	0x1
 2052 0133 3F       		.uleb128 0x3f
 2053 0134 19       		.uleb128 0x19
 2054 0135 03       		.uleb128 0x3
 2055 0136 0E       		.uleb128 0xe
 2056 0137 3A       		.uleb128 0x3a
 2057 0138 0B       		.uleb128 0xb
 2058 0139 3B       		.uleb128 0x3b
 2059 013a 0B       		.uleb128 0xb
 2060 013b 27       		.uleb128 0x27
 2061 013c 19       		.uleb128 0x19
 2062 013d 11       		.uleb128 0x11
 2063 013e 01       		.uleb128 0x1
 2064 013f 12       		.uleb128 0x12
 2065 0140 06       		.uleb128 0x6
 2066 0141 40       		.uleb128 0x40
 2067 0142 18       		.uleb128 0x18
 2068 0143 9742     		.uleb128 0x2117
 2069 0145 19       		.uleb128 0x19
 2070 0146 01       		.uleb128 0x1
 2071 0147 13       		.uleb128 0x13
 2072 0148 00       		.byte	0
 2073 0149 00       		.byte	0
 2074 014a 1B       		.uleb128 0x1b
 2075 014b 898201   		.uleb128 0x4109
 2076 014e 00       		.byte	0
 2077 014f 11       		.uleb128 0x11
 2078 0150 01       		.uleb128 0x1
 2079 0151 31       		.uleb128 0x31
 2080 0152 13       		.uleb128 0x13
 2081 0153 00       		.byte	0
 2082 0154 00       		.byte	0
 2083 0155 1C       		.uleb128 0x1c
 2084 0156 898201   		.uleb128 0x4109
 2085 0159 01       		.byte	0x1
 2086 015a 11       		.uleb128 0x11
 2087 015b 01       		.uleb128 0x1
 2088 015c 31       		.uleb128 0x31
 2089 015d 13       		.uleb128 0x13
 2090 015e 01       		.uleb128 0x1
 2091 015f 13       		.uleb128 0x13
 2092 0160 00       		.byte	0
 2093 0161 00       		.byte	0
 2094 0162 1D       		.uleb128 0x1d
 2095 0163 898201   		.uleb128 0x4109
 2096 0166 00       		.byte	0
 2097 0167 11       		.uleb128 0x11
ARM GAS  /tmp/ccXmtIij.s 			page 38


 2098 0168 01       		.uleb128 0x1
 2099 0169 9542     		.uleb128 0x2115
 2100 016b 19       		.uleb128 0x19
 2101 016c 31       		.uleb128 0x31
 2102 016d 13       		.uleb128 0x13
 2103 016e 00       		.byte	0
 2104 016f 00       		.byte	0
 2105 0170 1E       		.uleb128 0x1e
 2106 0171 2E       		.uleb128 0x2e
 2107 0172 01       		.byte	0x1
 2108 0173 3F       		.uleb128 0x3f
 2109 0174 19       		.uleb128 0x19
 2110 0175 03       		.uleb128 0x3
 2111 0176 0E       		.uleb128 0xe
 2112 0177 3A       		.uleb128 0x3a
 2113 0178 0B       		.uleb128 0xb
 2114 0179 3B       		.uleb128 0x3b
 2115 017a 05       		.uleb128 0x5
 2116 017b 27       		.uleb128 0x27
 2117 017c 19       		.uleb128 0x19
 2118 017d 11       		.uleb128 0x11
 2119 017e 01       		.uleb128 0x1
 2120 017f 12       		.uleb128 0x12
 2121 0180 06       		.uleb128 0x6
 2122 0181 40       		.uleb128 0x40
 2123 0182 18       		.uleb128 0x18
 2124 0183 9742     		.uleb128 0x2117
 2125 0185 19       		.uleb128 0x19
 2126 0186 01       		.uleb128 0x1
 2127 0187 13       		.uleb128 0x13
 2128 0188 00       		.byte	0
 2129 0189 00       		.byte	0
 2130 018a 1F       		.uleb128 0x1f
 2131 018b 898201   		.uleb128 0x4109
 2132 018e 01       		.byte	0x1
 2133 018f 11       		.uleb128 0x11
 2134 0190 01       		.uleb128 0x1
 2135 0191 31       		.uleb128 0x31
 2136 0192 13       		.uleb128 0x13
 2137 0193 00       		.byte	0
 2138 0194 00       		.byte	0
 2139 0195 20       		.uleb128 0x20
 2140 0196 05       		.uleb128 0x5
 2141 0197 00       		.byte	0
 2142 0198 03       		.uleb128 0x3
 2143 0199 0E       		.uleb128 0xe
 2144 019a 3A       		.uleb128 0x3a
 2145 019b 0B       		.uleb128 0xb
 2146 019c 3B       		.uleb128 0x3b
 2147 019d 05       		.uleb128 0x5
 2148 019e 49       		.uleb128 0x49
 2149 019f 13       		.uleb128 0x13
 2150 01a0 02       		.uleb128 0x2
 2151 01a1 17       		.uleb128 0x17
 2152 01a2 00       		.byte	0
 2153 01a3 00       		.byte	0
 2154 01a4 21       		.uleb128 0x21
ARM GAS  /tmp/ccXmtIij.s 			page 39


 2155 01a5 34       		.uleb128 0x34
 2156 01a6 00       		.byte	0
 2157 01a7 03       		.uleb128 0x3
 2158 01a8 08       		.uleb128 0x8
 2159 01a9 3A       		.uleb128 0x3a
 2160 01aa 0B       		.uleb128 0xb
 2161 01ab 3B       		.uleb128 0x3b
 2162 01ac 05       		.uleb128 0x5
 2163 01ad 49       		.uleb128 0x49
 2164 01ae 13       		.uleb128 0x13
 2165 01af 02       		.uleb128 0x2
 2166 01b0 17       		.uleb128 0x17
 2167 01b1 00       		.byte	0
 2168 01b2 00       		.byte	0
 2169 01b3 22       		.uleb128 0x22
 2170 01b4 34       		.uleb128 0x34
 2171 01b5 00       		.byte	0
 2172 01b6 03       		.uleb128 0x3
 2173 01b7 0E       		.uleb128 0xe
 2174 01b8 3A       		.uleb128 0x3a
 2175 01b9 0B       		.uleb128 0xb
 2176 01ba 3B       		.uleb128 0x3b
 2177 01bb 05       		.uleb128 0x5
 2178 01bc 49       		.uleb128 0x49
 2179 01bd 13       		.uleb128 0x13
 2180 01be 02       		.uleb128 0x2
 2181 01bf 17       		.uleb128 0x17
 2182 01c0 00       		.byte	0
 2183 01c1 00       		.byte	0
 2184 01c2 23       		.uleb128 0x23
 2185 01c3 05       		.uleb128 0x5
 2186 01c4 00       		.byte	0
 2187 01c5 03       		.uleb128 0x3
 2188 01c6 0E       		.uleb128 0xe
 2189 01c7 3A       		.uleb128 0x3a
 2190 01c8 0B       		.uleb128 0xb
 2191 01c9 3B       		.uleb128 0x3b
 2192 01ca 05       		.uleb128 0x5
 2193 01cb 49       		.uleb128 0x49
 2194 01cc 13       		.uleb128 0x13
 2195 01cd 02       		.uleb128 0x2
 2196 01ce 18       		.uleb128 0x18
 2197 01cf 00       		.byte	0
 2198 01d0 00       		.byte	0
 2199 01d1 24       		.uleb128 0x24
 2200 01d2 0B       		.uleb128 0xb
 2201 01d3 01       		.byte	0x1
 2202 01d4 11       		.uleb128 0x11
 2203 01d5 01       		.uleb128 0x1
 2204 01d6 12       		.uleb128 0x12
 2205 01d7 06       		.uleb128 0x6
 2206 01d8 00       		.byte	0
 2207 01d9 00       		.byte	0
 2208 01da 25       		.uleb128 0x25
 2209 01db 34       		.uleb128 0x34
 2210 01dc 00       		.byte	0
 2211 01dd 03       		.uleb128 0x3
ARM GAS  /tmp/ccXmtIij.s 			page 40


 2212 01de 0E       		.uleb128 0xe
 2213 01df 3A       		.uleb128 0x3a
 2214 01e0 0B       		.uleb128 0xb
 2215 01e1 3B       		.uleb128 0x3b
 2216 01e2 05       		.uleb128 0x5
 2217 01e3 49       		.uleb128 0x49
 2218 01e4 13       		.uleb128 0x13
 2219 01e5 3F       		.uleb128 0x3f
 2220 01e6 19       		.uleb128 0x19
 2221 01e7 3C       		.uleb128 0x3c
 2222 01e8 19       		.uleb128 0x19
 2223 01e9 00       		.byte	0
 2224 01ea 00       		.byte	0
 2225 01eb 26       		.uleb128 0x26
 2226 01ec 34       		.uleb128 0x34
 2227 01ed 00       		.byte	0
 2228 01ee 03       		.uleb128 0x3
 2229 01ef 0E       		.uleb128 0xe
 2230 01f0 3A       		.uleb128 0x3a
 2231 01f1 0B       		.uleb128 0xb
 2232 01f2 3B       		.uleb128 0x3b
 2233 01f3 0B       		.uleb128 0xb
 2234 01f4 49       		.uleb128 0x49
 2235 01f5 13       		.uleb128 0x13
 2236 01f6 3F       		.uleb128 0x3f
 2237 01f7 19       		.uleb128 0x19
 2238 01f8 02       		.uleb128 0x2
 2239 01f9 18       		.uleb128 0x18
 2240 01fa 00       		.byte	0
 2241 01fb 00       		.byte	0
 2242 01fc 27       		.uleb128 0x27
 2243 01fd 2E       		.uleb128 0x2e
 2244 01fe 00       		.byte	0
 2245 01ff 3F       		.uleb128 0x3f
 2246 0200 19       		.uleb128 0x19
 2247 0201 03       		.uleb128 0x3
 2248 0202 0E       		.uleb128 0xe
 2249 0203 3A       		.uleb128 0x3a
 2250 0204 0B       		.uleb128 0xb
 2251 0205 3B       		.uleb128 0x3b
 2252 0206 0B       		.uleb128 0xb
 2253 0207 27       		.uleb128 0x27
 2254 0208 19       		.uleb128 0x19
 2255 0209 3C       		.uleb128 0x3c
 2256 020a 19       		.uleb128 0x19
 2257 020b 00       		.byte	0
 2258 020c 00       		.byte	0
 2259 020d 28       		.uleb128 0x28
 2260 020e 2E       		.uleb128 0x2e
 2261 020f 00       		.byte	0
 2262 0210 3F       		.uleb128 0x3f
 2263 0211 19       		.uleb128 0x19
 2264 0212 03       		.uleb128 0x3
 2265 0213 0E       		.uleb128 0xe
 2266 0214 3A       		.uleb128 0x3a
 2267 0215 0B       		.uleb128 0xb
 2268 0216 3B       		.uleb128 0x3b
ARM GAS  /tmp/ccXmtIij.s 			page 41


 2269 0217 05       		.uleb128 0x5
 2270 0218 27       		.uleb128 0x27
 2271 0219 19       		.uleb128 0x19
 2272 021a 3C       		.uleb128 0x3c
 2273 021b 19       		.uleb128 0x19
 2274 021c 00       		.byte	0
 2275 021d 00       		.byte	0
 2276 021e 29       		.uleb128 0x29
 2277 021f 2E       		.uleb128 0x2e
 2278 0220 01       		.byte	0x1
 2279 0221 3F       		.uleb128 0x3f
 2280 0222 19       		.uleb128 0x19
 2281 0223 03       		.uleb128 0x3
 2282 0224 0E       		.uleb128 0xe
 2283 0225 3A       		.uleb128 0x3a
 2284 0226 0B       		.uleb128 0xb
 2285 0227 3B       		.uleb128 0x3b
 2286 0228 0B       		.uleb128 0xb
 2287 0229 27       		.uleb128 0x27
 2288 022a 19       		.uleb128 0x19
 2289 022b 3C       		.uleb128 0x3c
 2290 022c 19       		.uleb128 0x19
 2291 022d 01       		.uleb128 0x1
 2292 022e 13       		.uleb128 0x13
 2293 022f 00       		.byte	0
 2294 0230 00       		.byte	0
 2295 0231 2A       		.uleb128 0x2a
 2296 0232 2E       		.uleb128 0x2e
 2297 0233 01       		.byte	0x1
 2298 0234 3F       		.uleb128 0x3f
 2299 0235 19       		.uleb128 0x19
 2300 0236 03       		.uleb128 0x3
 2301 0237 0E       		.uleb128 0xe
 2302 0238 3A       		.uleb128 0x3a
 2303 0239 0B       		.uleb128 0xb
 2304 023a 3B       		.uleb128 0x3b
 2305 023b 05       		.uleb128 0x5
 2306 023c 27       		.uleb128 0x27
 2307 023d 19       		.uleb128 0x19
 2308 023e 3C       		.uleb128 0x3c
 2309 023f 19       		.uleb128 0x19
 2310 0240 01       		.uleb128 0x1
 2311 0241 13       		.uleb128 0x13
 2312 0242 00       		.byte	0
 2313 0243 00       		.byte	0
 2314 0244 2B       		.uleb128 0x2b
 2315 0245 2E       		.uleb128 0x2e
 2316 0246 01       		.byte	0x1
 2317 0247 3F       		.uleb128 0x3f
 2318 0248 19       		.uleb128 0x19
 2319 0249 03       		.uleb128 0x3
 2320 024a 0E       		.uleb128 0xe
 2321 024b 3A       		.uleb128 0x3a
 2322 024c 0B       		.uleb128 0xb
 2323 024d 3B       		.uleb128 0x3b
 2324 024e 05       		.uleb128 0x5
 2325 024f 27       		.uleb128 0x27
ARM GAS  /tmp/ccXmtIij.s 			page 42


 2326 0250 19       		.uleb128 0x19
 2327 0251 3C       		.uleb128 0x3c
 2328 0252 19       		.uleb128 0x19
 2329 0253 00       		.byte	0
 2330 0254 00       		.byte	0
 2331 0255 00       		.byte	0
 2332              		.section	.debug_loc,"",%progbits
 2333              	.Ldebug_loc0:
 2334              	.LLST0:
 2335 0000 00000000 		.4byte	.LVL0
 2336 0004 16000000 		.4byte	.LVL3
 2337 0008 0100     		.2byte	0x1
 2338 000a 50       		.byte	0x50
 2339 000b 16000000 		.4byte	.LVL3
 2340 000f 32000000 		.4byte	.LVL5
 2341 0013 0100     		.2byte	0x1
 2342 0015 55       		.byte	0x55
 2343 0016 32000000 		.4byte	.LVL5
 2344 001a 33000000 		.4byte	.LVL6-1
 2345 001e 0100     		.2byte	0x1
 2346 0020 50       		.byte	0x50
 2347 0021 33000000 		.4byte	.LVL6-1
 2348 0025 34000000 		.4byte	.LVL6
 2349 0029 0400     		.2byte	0x4
 2350 002b F3       		.byte	0xf3
 2351 002c 01       		.uleb128 0x1
 2352 002d 50       		.byte	0x50
 2353 002e 9F       		.byte	0x9f
 2354 002f 34000000 		.4byte	.LVL6
 2355 0033 52000000 		.4byte	.LVL10
 2356 0037 0100     		.2byte	0x1
 2357 0039 55       		.byte	0x55
 2358 003a 52000000 		.4byte	.LVL10
 2359 003e 57000000 		.4byte	.LVL11-1
 2360 0042 0100     		.2byte	0x1
 2361 0044 50       		.byte	0x50
 2362 0045 57000000 		.4byte	.LVL11-1
 2363 0049 5A000000 		.4byte	.LFE118
 2364 004d 0100     		.2byte	0x1
 2365 004f 55       		.byte	0x55
 2366 0050 00000000 		.4byte	0
 2367 0054 00000000 		.4byte	0
 2368              	.LLST1:
 2369 0058 06000000 		.4byte	.LVL1
 2370 005c 32000000 		.4byte	.LVL5
 2371 0060 0100     		.2byte	0x1
 2372 0062 54       		.byte	0x54
 2373 0063 34000000 		.4byte	.LVL6
 2374 0067 5A000000 		.4byte	.LFE118
 2375 006b 0100     		.2byte	0x1
 2376 006d 54       		.byte	0x54
 2377 006e 00000000 		.4byte	0
 2378 0072 00000000 		.4byte	0
 2379              	.LLST2:
 2380 0076 00000000 		.4byte	.LVL22
 2381 007a 10000000 		.4byte	.LVL23
 2382 007e 0100     		.2byte	0x1
ARM GAS  /tmp/ccXmtIij.s 			page 43


 2383 0080 50       		.byte	0x50
 2384 0081 10000000 		.4byte	.LVL23
 2385 0085 4E000000 		.4byte	.LVL26
 2386 0089 0100     		.2byte	0x1
 2387 008b 54       		.byte	0x54
 2388 008c 4E000000 		.4byte	.LVL26
 2389 0090 CE000000 		.4byte	.LVL38
 2390 0094 0400     		.2byte	0x4
 2391 0096 F3       		.byte	0xf3
 2392 0097 01       		.uleb128 0x1
 2393 0098 50       		.byte	0x50
 2394 0099 9F       		.byte	0x9f
 2395 009a CE000000 		.4byte	.LVL38
 2396 009e DA000000 		.4byte	.LVL39
 2397 00a2 0100     		.2byte	0x1
 2398 00a4 50       		.byte	0x50
 2399 00a5 DA000000 		.4byte	.LVL39
 2400 00a9 E8000000 		.4byte	.LVL40
 2401 00ad 0100     		.2byte	0x1
 2402 00af 54       		.byte	0x54
 2403 00b0 E8000000 		.4byte	.LVL40
 2404 00b4 FE000000 		.4byte	.LVL41
 2405 00b8 0100     		.2byte	0x1
 2406 00ba 50       		.byte	0x50
 2407 00bb FE000000 		.4byte	.LVL41
 2408 00bf 0C010000 		.4byte	.LVL43
 2409 00c3 0100     		.2byte	0x1
 2410 00c5 54       		.byte	0x54
 2411 00c6 0C010000 		.4byte	.LVL43
 2412 00ca 22010000 		.4byte	.LVL44
 2413 00ce 0100     		.2byte	0x1
 2414 00d0 50       		.byte	0x50
 2415 00d1 22010000 		.4byte	.LVL44
 2416 00d5 38010000 		.4byte	.LFE122
 2417 00d9 0100     		.2byte	0x1
 2418 00db 54       		.byte	0x54
 2419 00dc 00000000 		.4byte	0
 2420 00e0 00000000 		.4byte	0
 2421              	.LLST3:
 2422 00e4 30000000 		.4byte	.LVL24
 2423 00e8 58000000 		.4byte	.LVL27
 2424 00ec 0100     		.2byte	0x1
 2425 00ee 55       		.byte	0x55
 2426 00ef 58000000 		.4byte	.LVL27
 2427 00f3 CE000000 		.4byte	.LVL38
 2428 00f7 0300     		.2byte	0x3
 2429 00f9 76       		.byte	0x76
 2430 00fa 7F       		.sleb128 -1
 2431 00fb 9F       		.byte	0x9f
 2432 00fc 00000000 		.4byte	0
 2433 0100 00000000 		.4byte	0
 2434              	.LLST4:
 2435 0104 60000000 		.4byte	.LVL28
 2436 0108 6A000000 		.4byte	.LVL29
 2437 010c 0200     		.2byte	0x2
 2438 010e 30       		.byte	0x30
 2439 010f 9F       		.byte	0x9f
ARM GAS  /tmp/ccXmtIij.s 			page 44


 2440 0110 6A000000 		.4byte	.LVL29
 2441 0114 A6000000 		.4byte	.LVL32
 2442 0118 0100     		.2byte	0x1
 2443 011a 52       		.byte	0x52
 2444 011b BA000000 		.4byte	.LVL33
 2445 011f CE000000 		.4byte	.LVL38
 2446 0123 0100     		.2byte	0x1
 2447 0125 52       		.byte	0x52
 2448 0126 00000000 		.4byte	0
 2449 012a 00000000 		.4byte	0
 2450              	.LLST5:
 2451 012e 00000000 		.4byte	.LVL45
 2452 0132 08000000 		.4byte	.LVL46
 2453 0136 0100     		.2byte	0x1
 2454 0138 50       		.byte	0x50
 2455 0139 08000000 		.4byte	.LVL46
 2456 013d 0A000000 		.4byte	.LVL47
 2457 0141 0400     		.2byte	0x4
 2458 0143 F3       		.byte	0xf3
 2459 0144 01       		.uleb128 0x1
 2460 0145 50       		.byte	0x50
 2461 0146 9F       		.byte	0x9f
 2462 0147 0A000000 		.4byte	.LVL47
 2463 014b 22000000 		.4byte	.LVL48
 2464 014f 0100     		.2byte	0x1
 2465 0151 50       		.byte	0x50
 2466 0152 22000000 		.4byte	.LVL48
 2467 0156 32000000 		.4byte	.LVL50
 2468 015a 0400     		.2byte	0x4
 2469 015c F3       		.byte	0xf3
 2470 015d 01       		.uleb128 0x1
 2471 015e 50       		.byte	0x50
 2472 015f 9F       		.byte	0x9f
 2473 0160 32000000 		.4byte	.LVL50
 2474 0164 34000000 		.4byte	.LVL51
 2475 0168 0100     		.2byte	0x1
 2476 016a 50       		.byte	0x50
 2477 016b 34000000 		.4byte	.LVL51
 2478 016f 50000000 		.4byte	.LFE123
 2479 0173 0400     		.2byte	0x4
 2480 0175 F3       		.byte	0xf3
 2481 0176 01       		.uleb128 0x1
 2482 0177 50       		.byte	0x50
 2483 0178 9F       		.byte	0x9f
 2484 0179 00000000 		.4byte	0
 2485 017d 00000000 		.4byte	0
 2486              	.LLST6:
 2487 0181 00000000 		.4byte	.LVL53
 2488 0185 0A000000 		.4byte	.LVL54
 2489 0189 0100     		.2byte	0x1
 2490 018b 50       		.byte	0x50
 2491 018c 0A000000 		.4byte	.LVL54
 2492 0190 30000000 		.4byte	.LFE124
 2493 0194 0400     		.2byte	0x4
 2494 0196 F3       		.byte	0xf3
 2495 0197 01       		.uleb128 0x1
 2496 0198 50       		.byte	0x50
ARM GAS  /tmp/ccXmtIij.s 			page 45


 2497 0199 9F       		.byte	0x9f
 2498 019a 00000000 		.4byte	0
 2499 019e 00000000 		.4byte	0
 2500              	.LLST7:
 2501 01a2 00000000 		.4byte	.LVL53
 2502 01a6 1C000000 		.4byte	.LVL55
 2503 01aa 0100     		.2byte	0x1
 2504 01ac 52       		.byte	0x52
 2505 01ad 1C000000 		.4byte	.LVL55
 2506 01b1 30000000 		.4byte	.LFE124
 2507 01b5 0400     		.2byte	0x4
 2508 01b7 F3       		.byte	0xf3
 2509 01b8 01       		.uleb128 0x1
 2510 01b9 52       		.byte	0x52
 2511 01ba 9F       		.byte	0x9f
 2512 01bb 00000000 		.4byte	0
 2513 01bf 00000000 		.4byte	0
 2514              	.LLST8:
 2515 01c3 1C000000 		.4byte	.LVL55
 2516 01c7 24000000 		.4byte	.LVL56
 2517 01cb 0100     		.2byte	0x1
 2518 01cd 52       		.byte	0x52
 2519 01ce 00000000 		.4byte	0
 2520 01d2 00000000 		.4byte	0
 2521              	.LLST9:
 2522 01d6 00000000 		.4byte	.LVL57
 2523 01da 0C000000 		.4byte	.LVL58
 2524 01de 0100     		.2byte	0x1
 2525 01e0 50       		.byte	0x50
 2526 01e1 0C000000 		.4byte	.LVL58
 2527 01e5 1C000000 		.4byte	.LFE125
 2528 01e9 0400     		.2byte	0x4
 2529 01eb F3       		.byte	0xf3
 2530 01ec 01       		.uleb128 0x1
 2531 01ed 50       		.byte	0x50
 2532 01ee 9F       		.byte	0x9f
 2533 01ef 00000000 		.4byte	0
 2534 01f3 00000000 		.4byte	0
 2535              		.section	.debug_aranges,"",%progbits
 2536 0000 54000000 		.4byte	0x54
 2537 0004 0200     		.2byte	0x2
 2538 0006 00000000 		.4byte	.Ldebug_info0
 2539 000a 04       		.byte	0x4
 2540 000b 00       		.byte	0
 2541 000c 0000     		.2byte	0
 2542 000e 0000     		.2byte	0
 2543 0010 00000000 		.4byte	.LFB118
 2544 0014 5A000000 		.4byte	.LFE118-.LFB118
 2545 0018 00000000 		.4byte	.LFB119
 2546 001c 1C000000 		.4byte	.LFE119-.LFB119
 2547 0020 00000000 		.4byte	.LFB120
 2548 0024 1C000000 		.4byte	.LFE120-.LFB120
 2549 0028 00000000 		.4byte	.LFB121
 2550 002c 2C000000 		.4byte	.LFE121-.LFB121
 2551 0030 00000000 		.4byte	.LFB122
 2552 0034 38010000 		.4byte	.LFE122-.LFB122
 2553 0038 00000000 		.4byte	.LFB123
ARM GAS  /tmp/ccXmtIij.s 			page 46


 2554 003c 50000000 		.4byte	.LFE123-.LFB123
 2555 0040 00000000 		.4byte	.LFB124
 2556 0044 30000000 		.4byte	.LFE124-.LFB124
 2557 0048 00000000 		.4byte	.LFB125
 2558 004c 1C000000 		.4byte	.LFE125-.LFB125
 2559 0050 00000000 		.4byte	0
 2560 0054 00000000 		.4byte	0
 2561              		.section	.debug_ranges,"",%progbits
 2562              	.Ldebug_ranges0:
 2563 0000 00000000 		.4byte	.LFB118
 2564 0004 5A000000 		.4byte	.LFE118
 2565 0008 00000000 		.4byte	.LFB119
 2566 000c 1C000000 		.4byte	.LFE119
 2567 0010 00000000 		.4byte	.LFB120
 2568 0014 1C000000 		.4byte	.LFE120
 2569 0018 00000000 		.4byte	.LFB121
 2570 001c 2C000000 		.4byte	.LFE121
 2571 0020 00000000 		.4byte	.LFB122
 2572 0024 38010000 		.4byte	.LFE122
 2573 0028 00000000 		.4byte	.LFB123
 2574 002c 50000000 		.4byte	.LFE123
 2575 0030 00000000 		.4byte	.LFB124
 2576 0034 30000000 		.4byte	.LFE124
 2577 0038 00000000 		.4byte	.LFB125
 2578 003c 1C000000 		.4byte	.LFE125
 2579 0040 00000000 		.4byte	0
 2580 0044 00000000 		.4byte	0
 2581              		.section	.debug_line,"",%progbits
 2582              	.Ldebug_line0:
 2583 0000 2C030000 		.section	.debug_str,"MS",%progbits,1
 2583      0200E901 
 2583      00000201 
 2583      FB0E0D00 
 2583      01010101 
 2584              	.LASF36:
 2585 0000 41484231 		.ascii	"AHB1LPENR\000"
 2585      4C50454E 
 2585      5200
 2586              	.LASF64:
 2587 000a 43434552 		.ascii	"CCER\000"
 2587      00
 2588              	.LASF87:
 2589 000f 70776D5F 		.ascii	"pwm_lld_stop\000"
 2589      6C6C645F 
 2589      73746F70 
 2589      00
 2590              	.LASF26:
 2591 001c 41504231 		.ascii	"APB1RSTR\000"
 2591      52535452 
 2591      00
 2592              	.LASF101:
 2593 0025 474E5520 		.ascii	"GNU C 4.9.3 20150529 (prerelease) -mcpu=cortex-m4 -"
 2593      4320342E 
 2593      392E3320 
 2593      32303135 
 2593      30353239 
 2594 0058 6D6E6F2D 		.ascii	"mno-thumb-interwork -mthumb -ggdb -O2 -fomit-frame-"
ARM GAS  /tmp/ccXmtIij.s 			page 47


 2594      7468756D 
 2594      622D696E 
 2594      74657277 
 2594      6F726B20 
 2595 008b 706F696E 		.ascii	"pointer -falign-functions=16 -ffunction-sections -f"
 2595      74657220 
 2595      2D66616C 
 2595      69676E2D 
 2595      66756E63 
 2596 00be 64617461 		.ascii	"data-sections -fno-common\000"
 2596      2D736563 
 2596      74696F6E 
 2596      73202D66 
 2596      6E6F2D63 
 2597              	.LASF30:
 2598 00d8 41484232 		.ascii	"AHB2ENR\000"
 2598      454E5200 
 2599              	.LASF66:
 2600 00e0 444D4152 		.ascii	"DMAR\000"
 2600      00
 2601              	.LASF55:
 2602 00e5 73746174 		.ascii	"state\000"
 2602      6500
 2603              	.LASF63:
 2604 00eb 43434D52 		.ascii	"CCMR2\000"
 2604      3200
 2605              	.LASF3:
 2606 00f1 73686F72 		.ascii	"short int\000"
 2606      7420696E 
 2606      7400
 2607              	.LASF73:
 2608 00fb 70776D63 		.ascii	"pwmcnt_t\000"
 2608      6E745F74 
 2608      00
 2609              	.LASF18:
 2610 0104 73697A65 		.ascii	"sizetype\000"
 2610      74797065 
 2610      00
 2611              	.LASF43:
 2612 010d 42444352 		.ascii	"BDCR\000"
 2612      00
 2613              	.LASF46:
 2614 0112 504C4C49 		.ascii	"PLLI2SCFGR\000"
 2614      32534346 
 2614      475200
 2615              	.LASF104:
 2616 011d 70776D5F 		.ascii	"pwm_lld_serve_interrupt\000"
 2616      6C6C645F 
 2616      73657276 
 2616      655F696E 
 2616      74657272 
 2617              	.LASF72:
 2618 0135 70776D63 		.ascii	"pwmchannel_t\000"
 2618      68616E6E 
 2618      656C5F74 
 2618      00
 2619              	.LASF9:
ARM GAS  /tmp/ccXmtIij.s 			page 48


 2620 0142 5F5F7569 		.ascii	"__uint32_t\000"
 2620      6E743332 
 2620      5F7400
 2621              	.LASF74:
 2622 014d 6D6F6465 		.ascii	"mode\000"
 2622      00
 2623              	.LASF5:
 2624 0152 5F5F7569 		.ascii	"__uint16_t\000"
 2624      6E743136 
 2624      5F7400
 2625              	.LASF45:
 2626 015d 53534347 		.ascii	"SSCGR\000"
 2626      5200
 2627              	.LASF22:
 2628 0163 41484231 		.ascii	"AHB1RSTR\000"
 2628      52535452 
 2628      00
 2629              	.LASF56:
 2630 016c 636F6E66 		.ascii	"config\000"
 2630      696700
 2631              	.LASF21:
 2632 0173 43464752 		.ascii	"CFGR\000"
 2632      00
 2633              	.LASF38:
 2634 0178 41484233 		.ascii	"AHB3LPENR\000"
 2634      4C50454E 
 2634      5200
 2635              	.LASF98:
 2636 0182 70776D4F 		.ascii	"pwmObjectInit\000"
 2636      626A6563 
 2636      74496E69 
 2636      7400
 2637              	.LASF13:
 2638 0190 75696E74 		.ascii	"uint8_t\000"
 2638      385F7400 
 2639              	.LASF103:
 2640 0198 2F686F6D 		.ascii	"/home/namv1994/CFSD19/Christian STM32 code/STM32F4/"
 2640      652F6E61 
 2640      6D763139 
 2640      39342F43 
 2640      46534431 
 2641 01cb 53544D33 		.ascii	"STM32F4/embedded/ChibiOS/nam-test-USB/USB_CDC\000"
 2641      3246342F 
 2641      656D6265 
 2641      64646564 
 2641      2F436869 
 2642              	.LASF33:
 2643 01f9 41504231 		.ascii	"APB1ENR\000"
 2643      454E5200 
 2644              	.LASF16:
 2645 0201 75696E74 		.ascii	"uint32_t\000"
 2645      33325F74 
 2645      00
 2646              	.LASF86:
 2647 020a 63636572 		.ascii	"ccer\000"
 2647      00
 2648              	.LASF48:
ARM GAS  /tmp/ccXmtIij.s 			page 49


 2649 020f 44434B43 		.ascii	"DCKCFGR\000"
 2649      46475200 
 2650              	.LASF90:
 2651 0217 77696474 		.ascii	"width\000"
 2651      6800
 2652              	.LASF96:
 2653 021d 6462675F 		.ascii	"dbg_check_leave_isr\000"
 2653      63686563 
 2653      6B5F6C65 
 2653      6176655F 
 2653      69737200 
 2654              	.LASF31:
 2655 0231 41484233 		.ascii	"AHB3ENR\000"
 2655      454E5200 
 2656              	.LASF49:
 2657 0239 5243435F 		.ascii	"RCC_TypeDef\000"
 2657      54797065 
 2657      44656600 
 2658              	.LASF97:
 2659 0245 5F706F72 		.ascii	"_port_irq_epilogue\000"
 2659      745F6972 
 2659      715F6570 
 2659      696C6F67 
 2659      756500
 2660              	.LASF11:
 2661 0258 6C6F6E67 		.ascii	"long long int\000"
 2661      206C6F6E 
 2661      6720696E 
 2661      7400
 2662              	.LASF8:
 2663 0266 6C6F6E67 		.ascii	"long int\000"
 2663      20696E74 
 2663      00
 2664              	.LASF105:
 2665 026f 6E766963 		.ascii	"nvicDisableVector\000"
 2665      44697361 
 2665      626C6556 
 2665      6563746F 
 2665      7200
 2666              	.LASF68:
 2667 0281 43435235 		.ascii	"CCR5\000"
 2667      00
 2668              	.LASF69:
 2669 0286 43435236 		.ascii	"CCR6\000"
 2669      00
 2670              	.LASF10:
 2671 028b 6C6F6E67 		.ascii	"long unsigned int\000"
 2671      20756E73 
 2671      69676E65 
 2671      6420696E 
 2671      7400
 2672              	.LASF57:
 2673 029d 70657269 		.ascii	"period\000"
 2673      6F6400
 2674              	.LASF27:
 2675 02a4 41504232 		.ascii	"APB2RSTR\000"
 2675      52535452 
ARM GAS  /tmp/ccXmtIij.s 			page 50


 2675      00
 2676              	.LASF4:
 2677 02ad 5F5F7569 		.ascii	"__uint8_t\000"
 2677      6E74385F 
 2677      7400
 2678              	.LASF62:
 2679 02b7 43434D52 		.ascii	"CCMR1\000"
 2679      3100
 2680              	.LASF84:
 2681 02bd 70776D5F 		.ascii	"pwm_lld_start\000"
 2681      6C6C645F 
 2681      73746172 
 2681      7400
 2682              	.LASF81:
 2683 02cb 56656374 		.ascii	"VectorB4\000"
 2683      6F724234 
 2683      00
 2684              	.LASF67:
 2685 02d4 43434D52 		.ascii	"CCMR3\000"
 2685      3300
 2686              	.LASF82:
 2687 02da 56656374 		.ascii	"VectorB8\000"
 2687      6F724238 
 2687      00
 2688              	.LASF99:
 2689 02e3 63684462 		.ascii	"chDbgPanic\000"
 2689      6750616E 
 2689      696300
 2690              	.LASF85:
 2691 02ee 70776D70 		.ascii	"pwmp\000"
 2691      00
 2692              	.LASF60:
 2693 02f3 534D4352 		.ascii	"SMCR\000"
 2693      00
 2694              	.LASF50:
 2695 02f8 50574D5F 		.ascii	"PWM_UNINIT\000"
 2695      554E494E 
 2695      495400
 2696              	.LASF2:
 2697 0303 756E7369 		.ascii	"unsigned char\000"
 2697      676E6564 
 2697      20636861 
 2697      7200
 2698              	.LASF88:
 2699 0311 70776D5F 		.ascii	"pwm_lld_enable_channel\000"
 2699      6C6C645F 
 2699      656E6162 
 2699      6C655F63 
 2699      68616E6E 
 2700              	.LASF65:
 2701 0328 42445452 		.ascii	"BDTR\000"
 2701      00
 2702              	.LASF34:
 2703 032d 41504232 		.ascii	"APB2ENR\000"
 2703      454E5200 
 2704              	.LASF100:
 2705 0335 6E766963 		.ascii	"nvicEnableVector\000"
ARM GAS  /tmp/ccXmtIij.s 			page 51


 2705      456E6162 
 2705      6C655665 
 2705      63746F72 
 2705      00
 2706              	.LASF1:
 2707 0346 7369676E 		.ascii	"signed char\000"
 2707      65642063 
 2707      68617200 
 2708              	.LASF12:
 2709 0352 6C6F6E67 		.ascii	"long long unsigned int\000"
 2709      206C6F6E 
 2709      6720756E 
 2709      7369676E 
 2709      65642069 
 2710              	.LASF0:
 2711 0369 756E7369 		.ascii	"unsigned int\000"
 2711      676E6564 
 2711      20696E74 
 2711      00
 2712              	.LASF23:
 2713 0376 41484232 		.ascii	"AHB2RSTR\000"
 2713      52535452 
 2713      00
 2714              	.LASF14:
 2715 037f 75696E74 		.ascii	"uint16_t\000"
 2715      31365F74 
 2715      00
 2716              	.LASF80:
 2717 0388 50574D43 		.ascii	"PWMConfig\000"
 2717      6F6E6669 
 2717      6700
 2718              	.LASF61:
 2719 0392 44494552 		.ascii	"DIER\000"
 2719      00
 2720              	.LASF20:
 2721 0397 504C4C43 		.ascii	"PLLCFGR\000"
 2721      46475200 
 2722              	.LASF6:
 2723 039f 73686F72 		.ascii	"short unsigned int\000"
 2723      7420756E 
 2723      7369676E 
 2723      65642069 
 2723      6E7400
 2724              	.LASF40:
 2725 03b2 41504231 		.ascii	"APB1LPENR\000"
 2725      4C50454E 
 2725      5200
 2726              	.LASF83:
 2727 03bc 70776D5F 		.ascii	"pwm_lld_init\000"
 2727      6C6C645F 
 2727      696E6974 
 2727      00
 2728              	.LASF19:
 2729 03c9 63686172 		.ascii	"char\000"
 2729      00
 2730              	.LASF70:
 2731 03ce 73746D33 		.ascii	"stm32_tim_t\000"
ARM GAS  /tmp/ccXmtIij.s 			page 52


 2731      325F7469 
 2731      6D5F7400 
 2732              	.LASF54:
 2733 03da 50574D44 		.ascii	"PWMDriver\000"
 2733      72697665 
 2733      7200
 2734              	.LASF15:
 2735 03e4 696E7433 		.ascii	"int32_t\000"
 2735      325F7400 
 2736              	.LASF17:
 2737 03ec 5F426F6F 		.ascii	"_Bool\000"
 2737      6C00
 2738              	.LASF89:
 2739 03f2 6368616E 		.ascii	"channel\000"
 2739      6E656C00 
 2740              	.LASF37:
 2741 03fa 41484232 		.ascii	"AHB2LPENR\000"
 2741      4C50454E 
 2741      5200
 2742              	.LASF25:
 2743 0404 52455345 		.ascii	"RESERVED0\000"
 2743      52564544 
 2743      3000
 2744              	.LASF28:
 2745 040e 52455345 		.ascii	"RESERVED1\000"
 2745      52564544 
 2745      3100
 2746              	.LASF32:
 2747 0418 52455345 		.ascii	"RESERVED2\000"
 2747      52564544 
 2747      3200
 2748              	.LASF35:
 2749 0422 52455345 		.ascii	"RESERVED3\000"
 2749      52564544 
 2749      3300
 2750              	.LASF39:
 2751 042c 52455345 		.ascii	"RESERVED4\000"
 2751      52564544 
 2751      3400
 2752              	.LASF42:
 2753 0436 52455345 		.ascii	"RESERVED5\000"
 2753      52564544 
 2753      3500
 2754              	.LASF44:
 2755 0440 52455345 		.ascii	"RESERVED6\000"
 2755      52564544 
 2755      3600
 2756              	.LASF58:
 2757 044a 636C6F63 		.ascii	"clock\000"
 2757      6B00
 2758              	.LASF95:
 2759 0450 6462675F 		.ascii	"dbg_check_enter_isr\000"
 2759      63686563 
 2759      6B5F656E 
 2759      7465725F 
 2759      69737200 
 2760              	.LASF29:
ARM GAS  /tmp/ccXmtIij.s 			page 53


 2761 0464 41484231 		.ascii	"AHB1ENR\000"
 2761      454E5200 
 2762              	.LASF91:
 2763 046c 70776D5F 		.ascii	"pwm_lld_disable_channel\000"
 2763      6C6C645F 
 2763      64697361 
 2763      626C655F 
 2763      6368616E 
 2764              	.LASF78:
 2765 0484 6368616E 		.ascii	"channels\000"
 2765      6E656C73 
 2765      00
 2766              	.LASF7:
 2767 048d 5F5F696E 		.ascii	"__int32_t\000"
 2767      7433325F 
 2767      7400
 2768              	.LASF52:
 2769 0497 50574D5F 		.ascii	"PWM_READY\000"
 2769      52454144 
 2769      5900
 2770              	.LASF51:
 2771 04a1 50574D5F 		.ascii	"PWM_STOP\000"
 2771      53544F50 
 2771      00
 2772              	.LASF79:
 2773 04aa 64696572 		.ascii	"dier\000"
 2773      00
 2774              	.LASF77:
 2775 04af 66726571 		.ascii	"frequency\000"
 2775      75656E63 
 2775      7900
 2776              	.LASF76:
 2777 04b9 50574D43 		.ascii	"PWMChannelConfig\000"
 2777      68616E6E 
 2777      656C436F 
 2777      6E666967 
 2777      00
 2778              	.LASF93:
 2779 04ca 50574D44 		.ascii	"PWMD3\000"
 2779      3300
 2780              	.LASF94:
 2781 04d0 50574D44 		.ascii	"PWMD4\000"
 2781      3400
 2782              	.LASF24:
 2783 04d6 41484233 		.ascii	"AHB3RSTR\000"
 2783      52535452 
 2783      00
 2784              	.LASF71:
 2785 04df 70776D6D 		.ascii	"pwmmode_t\000"
 2785      6F64655F 
 2785      7400
 2786              	.LASF102:
 2787 04e9 43686962 		.ascii	"ChibiOS_2.6.5/os/hal/platforms/STM32/TIMv1/pwm_lld."
 2787      694F535F 
 2787      322E362E 
 2787      352F6F73 
 2787      2F68616C 
ARM GAS  /tmp/ccXmtIij.s 			page 54


 2788 051c 6300     		.ascii	"c\000"
 2789              	.LASF92:
 2790 051e 49544D5F 		.ascii	"ITM_RxBuffer\000"
 2790      52784275 
 2790      66666572 
 2790      00
 2791              	.LASF47:
 2792 052b 504C4C53 		.ascii	"PLLSAICFGR\000"
 2792      41494346 
 2792      475200
 2793              	.LASF53:
 2794 0536 70776D73 		.ascii	"pwmstate_t\000"
 2794      74617465 
 2794      5F7400
 2795              	.LASF59:
 2796 0541 70776D63 		.ascii	"pwmcallback_t\000"
 2796      616C6C62 
 2796      61636B5F 
 2796      7400
 2797              	.LASF41:
 2798 054f 41504232 		.ascii	"APB2LPENR\000"
 2798      4C50454E 
 2798      5200
 2799              	.LASF75:
 2800 0559 63616C6C 		.ascii	"callback\000"
 2800      6261636B 
 2800      00
 2801              		.ident	"GCC: (15:4.9.3+svn231177-1) 4.9.3 20150529 (prerelease)"
ARM GAS  /tmp/ccXmtIij.s 			page 55


DEFINED SYMBOLS
                            *ABS*:0000000000000000 pwm_lld.c
     /tmp/ccXmtIij.s:19     .text.pwm_lld_serve_interrupt:0000000000000000 $t
     /tmp/ccXmtIij.s:24     .text.pwm_lld_serve_interrupt:0000000000000000 pwm_lld_serve_interrupt
     /tmp/ccXmtIij.s:132    .text.VectorB4:0000000000000000 $t
     /tmp/ccXmtIij.s:138    .text.VectorB4:0000000000000000 VectorB4
     /tmp/ccXmtIij.s:169    .text.VectorB4:0000000000000018 $d
     /tmp/ccXmtIij.s:174    .text.VectorB8:0000000000000000 $t
     /tmp/ccXmtIij.s:180    .text.VectorB8:0000000000000000 VectorB8
     /tmp/ccXmtIij.s:211    .text.VectorB8:0000000000000018 $d
     /tmp/ccXmtIij.s:216    .text.pwm_lld_init:0000000000000000 $t
     /tmp/ccXmtIij.s:222    .text.pwm_lld_init:0000000000000000 pwm_lld_init
     /tmp/ccXmtIij.s:256    .text.pwm_lld_init:000000000000001c $d
     /tmp/ccXmtIij.s:264    .text.pwm_lld_start:0000000000000000 $t
     /tmp/ccXmtIij.s:270    .text.pwm_lld_start:0000000000000000 pwm_lld_start
     /tmp/ccXmtIij.s:514    .text.pwm_lld_start:0000000000000124 $d
     /tmp/ccXmtIij.s:523    .text.pwm_lld_stop:0000000000000000 $t
     /tmp/ccXmtIij.s:529    .text.pwm_lld_stop:0000000000000000 pwm_lld_stop
     /tmp/ccXmtIij.s:595    .text.pwm_lld_stop:0000000000000044 $d
     /tmp/ccXmtIij.s:602    .text.pwm_lld_enable_channel:0000000000000000 $t
     /tmp/ccXmtIij.s:608    .text.pwm_lld_enable_channel:0000000000000000 pwm_lld_enable_channel
     /tmp/ccXmtIij.s:666    .text.pwm_lld_disable_channel:0000000000000000 $t
     /tmp/ccXmtIij.s:672    .text.pwm_lld_disable_channel:0000000000000000 pwm_lld_disable_channel
     /tmp/ccXmtIij.s:711    .bss.PWMD4:0000000000000000 PWMD4
     /tmp/ccXmtIij.s:704    .bss.PWMD3:0000000000000000 PWMD3
     /tmp/ccXmtIij.s:700    .bss.PWMD3:0000000000000000 $d
     /tmp/ccXmtIij.s:707    .bss.PWMD4:0000000000000000 $d
     /tmp/ccXmtIij.s:714    .rodata.str1.4:0000000000000000 $d
                     .debug_frame:0000000000000010 $d

UNDEFINED SYMBOLS
dbg_check_enter_isr
dbg_check_leave_isr
_port_irq_epilogue
pwmObjectInit
chDbgPanic
nvicEnableVector
nvicDisableVector
