ARM GAS  /tmp/ccXmtIij.s 			page 1


   1              		.syntax unified
   2              		.cpu cortex-m4
   3              		.fpu softvfp
   4              		.eabi_attribute 20, 1
   5              		.eabi_attribute 21, 1
   6              		.eabi_attribute 23, 3
   7              		.eabi_attribute 24, 1
   8              		.eabi_attribute 25, 1
   9              		.eabi_attribute 26, 1
  10              		.eabi_attribute 30, 2
  11              		.eabi_attribute 34, 1
  12              		.eabi_attribute 18, 4
  13              		.thumb
  14              		.file	"pwm_lld.c"
  15              		.text
  16              	.Ltext0:
  17              		.cfi_sections	.debug_frame
  18              		.section	.text.pwm_lld_serve_interrupt,"ax",%progbits
  19              		.align	2
  20              		.p2align 4,,15
  21              		.thumb
  22              		.thumb_func
  23              		.type	pwm_lld_serve_interrupt, %function
  24              	pwm_lld_serve_interrupt:
  25              	.LFB118:
  26              		.file 1 "ChibiOS_2.6.5/os/hal/platforms/STM32/TIMv1/pwm_lld.c"
  27              		.loc 1 112 0
  28              		.cfi_startproc
  29              		@ args = 0, pretend = 0, frame = 0
  30              		@ frame_needed = 0, uses_anonymous_args = 0
  31              	.LVL0:
  32              		.loc 1 115 0
  33 0000 0269     		ldr	r2, [r0, #16]
  34              		.loc 1 112 0
  35 0002 70B5     		push	{r4, r5, r6, lr}
  36              		.cfi_def_cfa_offset 16
  37              		.cfi_offset 4, -16
  38              		.cfi_offset 5, -12
  39              		.cfi_offset 6, -8
  40              		.cfi_offset 14, -4
  41              		.loc 1 115 0
  42 0004 1469     		ldr	r4, [r2, #16]
  43              	.LVL1:
  44              		.loc 1 116 0
  45 0006 D368     		ldr	r3, [r2, #12]
  46 0008 DBB2     		uxtb	r3, r3
  47 000a 1C40     		ands	r4, r4, r3
  48              	.LVL2:
  49              		.loc 1 117 0
  50 000c E343     		mvns	r3, r4
  51              		.loc 1 118 0
  52 000e A607     		lsls	r6, r4, #30
  53              		.loc 1 112 0
  54 0010 0546     		mov	r5, r0
  55              		.loc 1 117 0
  56 0012 1361     		str	r3, [r2, #16]
  57              		.loc 1 118 0
ARM GAS  /tmp/ccXmtIij.s 			page 2


  58 0014 1DD4     		bmi	.L21
  59              	.LVL3:
  60              	.L2:
  61              		.loc 1 120 0
  62 0016 6007     		lsls	r0, r4, #29
  63 0018 16D4     		bmi	.L22
  64              	.L3:
  65              		.loc 1 122 0
  66 001a 2107     		lsls	r1, r4, #28
  67 001c 0FD4     		bmi	.L23
  68              	.L4:
  69              		.loc 1 124 0
  70 001e E206     		lsls	r2, r4, #27
  71 0020 08D4     		bmi	.L24
  72              	.L5:
  73              		.loc 1 126 0
  74 0022 E307     		lsls	r3, r4, #31
  75 0024 00D4     		bmi	.L25
  76 0026 70BD     		pop	{r4, r5, r6, pc}
  77              	.LVL4:
  78              	.L25:
  79              		.loc 1 127 0
  80 0028 6B68     		ldr	r3, [r5, #4]
  81 002a 2846     		mov	r0, r5
  82 002c 9B68     		ldr	r3, [r3, #8]
  83              		.loc 1 128 0
  84 002e BDE87040 		pop	{r4, r5, r6, lr}
  85              		.cfi_remember_state
  86              		.cfi_restore 14
  87              		.cfi_restore 6
  88              		.cfi_restore 5
  89              		.cfi_restore 4
  90              		.cfi_def_cfa_offset 0
  91              	.LVL5:
  92              		.loc 1 127 0
  93 0032 1847     		bx	r3	@ indirect register sibling call
  94              	.LVL6:
  95              	.L24:
  96              		.cfi_restore_state
  97              		.loc 1 125 0
  98 0034 6B68     		ldr	r3, [r5, #4]
  99 0036 2846     		mov	r0, r5
 100 0038 9B6A     		ldr	r3, [r3, #40]
 101 003a 9847     		blx	r3
 102              	.LVL7:
 103 003c F1E7     		b	.L5
 104              	.L23:
 105              		.loc 1 123 0
 106 003e 6B68     		ldr	r3, [r5, #4]
 107 0040 2846     		mov	r0, r5
 108 0042 1B6A     		ldr	r3, [r3, #32]
 109 0044 9847     		blx	r3
 110              	.LVL8:
 111 0046 EAE7     		b	.L4
 112              	.L22:
 113              		.loc 1 121 0
 114 0048 6B68     		ldr	r3, [r5, #4]
ARM GAS  /tmp/ccXmtIij.s 			page 3


 115 004a 2846     		mov	r0, r5
 116 004c 9B69     		ldr	r3, [r3, #24]
 117 004e 9847     		blx	r3
 118              	.LVL9:
 119 0050 E3E7     		b	.L3
 120              	.LVL10:
 121              	.L21:
 122              		.loc 1 119 0
 123 0052 4368     		ldr	r3, [r0, #4]
 124 0054 1B69     		ldr	r3, [r3, #16]
 125 0056 9847     		blx	r3
 126              	.LVL11:
 127 0058 DDE7     		b	.L2
 128              		.cfi_endproc
 129              	.LFE118:
 130              		.size	pwm_lld_serve_interrupt, .-pwm_lld_serve_interrupt
 131 005a 00BF     		.section	.text.VectorB4,"ax",%progbits
 132              		.align	2
 133              		.p2align 4,,15
 134              		.global	VectorB4
 135              		.thumb
 136              		.thumb_func
 137              		.type	VectorB4, %function
 138              	VectorB4:
 139              	.LFB119:
 140              		.loc 1 216 0
 141              		.cfi_startproc
 142              		@ args = 0, pretend = 0, frame = 0
 143              		@ frame_needed = 0, uses_anonymous_args = 0
 144 0000 08B5     		push	{r3, lr}
 145              		.cfi_def_cfa_offset 8
 146              		.cfi_offset 3, -8
 147              		.cfi_offset 14, -4
 148              		.loc 1 218 0
 149 0002 FFF7FEFF 		bl	dbg_check_enter_isr
 150              	.LVL12:
 151              		.loc 1 220 0
 152 0006 0448     		ldr	r0, .L28
 153 0008 FFF7FEFF 		bl	pwm_lld_serve_interrupt
 154              	.LVL13:
 155              		.loc 1 222 0
 156 000c FFF7FEFF 		bl	dbg_check_leave_isr
 157              	.LVL14:
 158              		.loc 1 223 0
 159 0010 BDE80840 		pop	{r3, lr}
 160              		.cfi_restore 14
 161              		.cfi_restore 3
 162              		.cfi_def_cfa_offset 0
 163              		.loc 1 222 0
 164 0014 FFF7FEBF 		b	_port_irq_epilogue
 165              	.LVL15:
 166              	.L29:
 167              		.align	2
 168              	.L28:
 169 0018 00000000 		.word	.LANCHOR0
 170              		.cfi_endproc
 171              	.LFE119:
ARM GAS  /tmp/ccXmtIij.s 			page 4


 172              		.size	VectorB4, .-VectorB4
 173              		.section	.text.VectorB8,"ax",%progbits
 174              		.align	2
 175              		.p2align 4,,15
 176              		.global	VectorB8
 177              		.thumb
 178              		.thumb_func
 179              		.type	VectorB8, %function
 180              	VectorB8:
 181              	.LFB120:
 182              		.loc 1 235 0
 183              		.cfi_startproc
 184              		@ args = 0, pretend = 0, frame = 0
 185              		@ frame_needed = 0, uses_anonymous_args = 0
 186 0000 08B5     		push	{r3, lr}
 187              		.cfi_def_cfa_offset 8
 188              		.cfi_offset 3, -8
 189              		.cfi_offset 14, -4
 190              		.loc 1 237 0
 191 0002 FFF7FEFF 		bl	dbg_check_enter_isr
 192              	.LVL16:
 193              		.loc 1 239 0
 194 0006 0448     		ldr	r0, .L32
 195 0008 FFF7FEFF 		bl	pwm_lld_serve_interrupt
 196              	.LVL17:
 197              		.loc 1 241 0
 198 000c FFF7FEFF 		bl	dbg_check_leave_isr
 199              	.LVL18:
 200              		.loc 1 242 0
 201 0010 BDE80840 		pop	{r3, lr}
 202              		.cfi_restore 14
 203              		.cfi_restore 3
 204              		.cfi_def_cfa_offset 0
 205              		.loc 1 241 0
 206 0014 FFF7FEBF 		b	_port_irq_epilogue
 207              	.LVL19:
 208              	.L33:
 209              		.align	2
 210              	.L32:
 211 0018 00000000 		.word	.LANCHOR1
 212              		.cfi_endproc
 213              	.LFE120:
 214              		.size	VectorB8, .-VectorB8
 215              		.section	.text.pwm_lld_init,"ax",%progbits
 216              		.align	2
 217              		.p2align 4,,15
 218              		.global	pwm_lld_init
 219              		.thumb
 220              		.thumb_func
 221              		.type	pwm_lld_init, %function
 222              	pwm_lld_init:
 223              	.LFB121:
 224              		.loc 1 345 0
 225              		.cfi_startproc
 226              		@ args = 0, pretend = 0, frame = 0
 227              		@ frame_needed = 0, uses_anonymous_args = 0
 228 0000 38B5     		push	{r3, r4, r5, lr}
ARM GAS  /tmp/ccXmtIij.s 			page 5


 229              		.cfi_def_cfa_offset 16
 230              		.cfi_offset 3, -16
 231              		.cfi_offset 4, -12
 232              		.cfi_offset 5, -8
 233              		.cfi_offset 14, -4
 234              		.loc 1 361 0
 235 0002 064D     		ldr	r5, .L36
 236              		.loc 1 367 0
 237 0004 064C     		ldr	r4, .L36+4
 238              		.loc 1 361 0
 239 0006 2846     		mov	r0, r5
 240 0008 FFF7FEFF 		bl	pwmObjectInit
 241              	.LVL20:
 242              		.loc 1 362 0
 243 000c 054B     		ldr	r3, .L36+8
 244 000e 2B61     		str	r3, [r5, #16]
 245              		.loc 1 367 0
 246 0010 2046     		mov	r0, r4
 247 0012 FFF7FEFF 		bl	pwmObjectInit
 248              	.LVL21:
 249              		.loc 1 368 0
 250 0016 044B     		ldr	r3, .L36+12
 251 0018 2361     		str	r3, [r4, #16]
 252 001a 38BD     		pop	{r3, r4, r5, pc}
 253              	.L37:
 254              		.align	2
 255              	.L36:
 256 001c 00000000 		.word	.LANCHOR0
 257 0020 00000000 		.word	.LANCHOR1
 258 0024 00040040 		.word	1073742848
 259 0028 00080040 		.word	1073743872
 260              		.cfi_endproc
 261              	.LFE121:
 262              		.size	pwm_lld_init, .-pwm_lld_init
 263              		.section	.text.pwm_lld_start,"ax",%progbits
 264              		.align	2
 265              		.p2align 4,,15
 266              		.global	pwm_lld_start
 267              		.thumb
 268              		.thumb_func
 269              		.type	pwm_lld_start, %function
 270              	pwm_lld_start:
 271              	.LFB122:
 272              		.loc 1 399 0
 273              		.cfi_startproc
 274              		@ args = 0, pretend = 0, frame = 0
 275              		@ frame_needed = 0, uses_anonymous_args = 0
 276              	.LVL22:
 277              		.loc 1 403 0
 278 0000 0378     		ldrb	r3, [r0]	@ zero_extendqisi2
 279 0002 012B     		cmp	r3, #1
 280              		.loc 1 399 0
 281 0004 70B5     		push	{r4, r5, r6, lr}
 282              		.cfi_def_cfa_offset 16
 283              		.cfi_offset 4, -16
 284              		.cfi_offset 5, -12
 285              		.cfi_offset 6, -8
ARM GAS  /tmp/ccXmtIij.s 			page 6


 286              		.cfi_offset 14, -4
 287              		.loc 1 399 0
 288 0006 0446     		mov	r4, r0
 289              		.loc 1 403 0
 290 0008 61D0     		beq	.L70
 291              		.loc 1 492 0
 292 000a 4168     		ldr	r1, [r0, #4]
 293              		.loc 1 491 0
 294 000c 0369     		ldr	r3, [r0, #16]
 295              		.loc 1 492 0
 296 000e 086B     		ldr	r0, [r1, #48]
 297              	.LVL23:
 298              		.loc 1 491 0
 299 0010 0022     		movs	r2, #0
 300              		.loc 1 492 0
 301 0012 20F0FF00 		bic	r0, r0, #255
 302              		.loc 1 491 0
 303 0016 1A60     		str	r2, [r3]
 304              		.loc 1 492 0
 305 0018 D860     		str	r0, [r3, #12]
 306              		.loc 1 494 0
 307 001a 1A61     		str	r2, [r3, #16]
 308              		.loc 1 495 0
 309 001c 5A63     		str	r2, [r3, #52]
 310              		.loc 1 496 0
 311 001e 9A63     		str	r2, [r3, #56]
 312              		.loc 1 497 0
 313 0020 DA63     		str	r2, [r3, #60]
 314              		.loc 1 498 0
 315 0022 1A64     		str	r2, [r3, #64]
 316              		.loc 1 499 0
 317 0024 5A62     		str	r2, [r3, #36]
 318              	.L42:
 319              		.loc 1 503 0
 320 0026 E068     		ldr	r0, [r4, #12]
 321 0028 0A68     		ldr	r2, [r1]
 322 002a B0FBF2F6 		udiv	r6, r0, r2
 323 002e 751E     		subs	r5, r6, #1
 324              	.LVL24:
 325              		.loc 1 504 0
 326 0030 B5F5803F 		cmp	r5, #65536
 327 0034 03D2     		bcs	.L43
 328              		.loc 1 504 0 is_stmt 0 discriminator 2
 329 0036 02FB06F2 		mul	r2, r2, r6
 330 003a 9042     		cmp	r0, r2
 331 003c 04D0     		beq	.L44
 332              	.L43:
 333              		.loc 1 504 0 discriminator 3
 334 003e 3948     		ldr	r0, .L75
 335 0040 FFF7FEFF 		bl	chDbgPanic
 336              	.LVL25:
 337 0044 6168     		ldr	r1, [r4, #4]
 338 0046 2369     		ldr	r3, [r4, #16]
 339              	.L44:
 340              		.loc 1 508 0 is_stmt 1
 341 0048 2089     		ldrh	r0, [r4, #8]
 342              		.loc 1 513 0
ARM GAS  /tmp/ccXmtIij.s 			page 7


 343 004a CA68     		ldr	r2, [r1, #12]
 344              		.loc 1 509 0
 345 004c CC6A     		ldr	r4, [r1, #44]
 346              	.LVL26:
 347              		.loc 1 508 0
 348 004e 0138     		subs	r0, r0, #1
 349              		.loc 1 513 0
 350 0050 02F00F02 		and	r2, r2, #15
 351              		.loc 1 508 0
 352 0054 80B2     		uxth	r0, r0
 353              		.loc 1 507 0
 354 0056 ADB2     		uxth	r5, r5
 355              	.LVL27:
 356              		.loc 1 513 0
 357 0058 012A     		cmp	r2, #1
 358              		.loc 1 507 0
 359 005a 9D62     		str	r5, [r3, #40]
 360              		.loc 1 508 0
 361 005c D862     		str	r0, [r3, #44]
 362              		.loc 1 509 0
 363 005e 5C60     		str	r4, [r3, #4]
 364              	.LVL28:
 365              		.loc 1 513 0
 366 0060 03D0     		beq	.L45
 367              		.loc 1 512 0
 368 0062 022A     		cmp	r2, #2
 369 0064 0CBF     		ite	eq
 370 0066 0322     		moveq	r2, #3
 371 0068 0022     		movne	r2, #0
 372              	.L45:
 373              	.LVL29:
 374              		.loc 1 521 0
 375 006a 4869     		ldr	r0, [r1, #20]
 376 006c 00F00F00 		and	r0, r0, #15
 377 0070 0128     		cmp	r0, #1
 378 0072 29D0     		beq	.L49
 379 0074 0228     		cmp	r0, #2
 380 0076 25D0     		beq	.L71
 381              	.L48:
 382              		.loc 1 529 0
 383 0078 C869     		ldr	r0, [r1, #28]
 384 007a 00F00F00 		and	r0, r0, #15
 385 007e 0128     		cmp	r0, #1
 386 0080 1DD0     		beq	.L52
 387 0082 0228     		cmp	r0, #2
 388 0084 19D0     		beq	.L72
 389              	.L51:
 390              		.loc 1 537 0
 391 0086 486A     		ldr	r0, [r1, #36]
 392 0088 00F00F00 		and	r0, r0, #15
 393 008c 0128     		cmp	r0, #1
 394 008e 03D0     		beq	.L55
 395 0090 0228     		cmp	r0, #2
 396 0092 03D1     		bne	.L54
 397              		.loc 1 539 0
 398 0094 42F40052 		orr	r2, r2, #8192
 399              	.LVL30:
ARM GAS  /tmp/ccXmtIij.s 			page 8


 400              	.L55:
 401              		.loc 1 541 0
 402 0098 42F48052 		orr	r2, r2, #4096
 403              	.LVL31:
 404              	.L54:
 405              		.loc 1 583 0
 406 009c 0120     		movs	r0, #1
 407              		.loc 1 582 0
 408 009e 1A62     		str	r2, [r3, #32]
 409              		.loc 1 583 0
 410 00a0 5861     		str	r0, [r3, #20]
 411              		.loc 1 584 0
 412 00a2 8968     		ldr	r1, [r1, #8]
 413 00a4 DA68     		ldr	r2, [r3, #12]
 414              	.LVL32:
 415              		.loc 1 585 0
 416 00a6 0020     		movs	r0, #0
 417              		.loc 1 584 0
 418 00a8 8142     		cmp	r1, r0
 419 00aa 18BF     		it	ne
 420 00ac 42F00102 		orrne	r2, r2, #1
 421              		.loc 1 594 0
 422 00b0 8521     		movs	r1, #133
 423              		.loc 1 584 0
 424 00b2 DA60     		str	r2, [r3, #12]
 425              		.loc 1 585 0
 426 00b4 1861     		str	r0, [r3, #16]
 427              		.loc 1 594 0
 428 00b6 1960     		str	r1, [r3]
 429 00b8 70BD     		pop	{r4, r5, r6, pc}
 430              	.LVL33:
 431              	.L72:
 432              		.loc 1 531 0
 433 00ba 42F40072 		orr	r2, r2, #512
 434              	.LVL34:
 435              	.L52:
 436              		.loc 1 533 0
 437 00be 42F48072 		orr	r2, r2, #256
 438              	.LVL35:
 439 00c2 E0E7     		b	.L51
 440              	.L71:
 441              		.loc 1 523 0
 442 00c4 42F02002 		orr	r2, r2, #32
 443              	.LVL36:
 444              	.L49:
 445              		.loc 1 525 0
 446 00c8 42F01002 		orr	r2, r2, #16
 447              	.LVL37:
 448 00cc D4E7     		b	.L48
 449              	.LVL38:
 450              	.L70:
 451              		.loc 1 430 0
 452 00ce 164B     		ldr	r3, .L75+4
 453 00d0 9842     		cmp	r0, r3
 454 00d2 09D0     		beq	.L73
 455              		.loc 1 439 0
 456 00d4 154B     		ldr	r3, .L75+8
ARM GAS  /tmp/ccXmtIij.s 			page 9


 457 00d6 9842     		cmp	r0, r3
 458 00d8 18D0     		beq	.L74
 459              	.LVL39:
 460              	.L41:
 461              		.loc 1 484 0
 462 00da 2369     		ldr	r3, [r4, #16]
 463 00dc 6168     		ldr	r1, [r4, #4]
 464 00de 46F66802 		movw	r2, #26728
 465 00e2 9A61     		str	r2, [r3, #24]
 466              		.loc 1 486 0
 467 00e4 DA61     		str	r2, [r3, #28]
 468 00e6 9EE7     		b	.L42
 469              	.LVL40:
 470              	.L73:
 471              		.loc 1 431 0
 472 00e8 114B     		ldr	r3, .L75+12
 473 00ea 1A6C     		ldr	r2, [r3, #64]
 474 00ec 42F00202 		orr	r2, r2, #2
 475 00f0 1A64     		str	r2, [r3, #64]
 476              		.loc 1 432 0
 477 00f2 1A6A     		ldr	r2, [r3, #32]
 478 00f4 42F00202 		orr	r2, r2, #2
 479 00f8 0021     		movs	r1, #0
 480 00fa 1A62     		str	r2, [r3, #32]
 481              		.loc 1 433 0
 482 00fc 1D20     		movs	r0, #29
 483              	.LVL41:
 484              	.L69:
 485              		.loc 1 441 0
 486 00fe 1962     		str	r1, [r3, #32]
 487              		.loc 1 442 0
 488 0100 7021     		movs	r1, #112
 489 0102 FFF7FEFF 		bl	nvicEnableVector
 490              	.LVL42:
 491              		.loc 1 444 0
 492 0106 0B4B     		ldr	r3, .L75+16
 493 0108 E360     		str	r3, [r4, #12]
 494 010a E6E7     		b	.L41
 495              	.LVL43:
 496              	.L74:
 497              		.loc 1 440 0
 498 010c 084B     		ldr	r3, .L75+12
 499 010e 1A6C     		ldr	r2, [r3, #64]
 500 0110 42F00402 		orr	r2, r2, #4
 501 0114 1A64     		str	r2, [r3, #64]
 502              		.loc 1 441 0
 503 0116 1A6A     		ldr	r2, [r3, #32]
 504 0118 42F00402 		orr	r2, r2, #4
 505 011c 0021     		movs	r1, #0
 506 011e 1A62     		str	r2, [r3, #32]
 507              		.loc 1 442 0
 508 0120 1E20     		movs	r0, #30
 509              	.LVL44:
 510 0122 ECE7     		b	.L69
 511              	.L76:
 512              		.align	2
 513              	.L75:
ARM GAS  /tmp/ccXmtIij.s 			page 10


 514 0124 00000000 		.word	.LC0
 515 0128 00000000 		.word	.LANCHOR0
 516 012c 00000000 		.word	.LANCHOR1
 517 0130 00380240 		.word	1073887232
 518 0134 00BD0105 		.word	84000000
 519              		.cfi_endproc
 520              	.LFE122:
 521              		.size	pwm_lld_start, .-pwm_lld_start
 522              		.section	.text.pwm_lld_stop,"ax",%progbits
 523              		.align	2
 524              		.p2align 4,,15
 525              		.global	pwm_lld_stop
 526              		.thumb
 527              		.thumb_func
 528              		.type	pwm_lld_stop, %function
 529              	pwm_lld_stop:
 530              	.LFB123:
 531              		.loc 1 605 0
 532              		.cfi_startproc
 533              		@ args = 0, pretend = 0, frame = 0
 534              		@ frame_needed = 0, uses_anonymous_args = 0
 535              	.LVL45:
 536 0000 08B5     		push	{r3, lr}
 537              		.cfi_def_cfa_offset 8
 538              		.cfi_offset 3, -8
 539              		.cfi_offset 14, -4
 540              		.loc 1 608 0
 541 0002 0378     		ldrb	r3, [r0]	@ zero_extendqisi2
 542 0004 022B     		cmp	r3, #2
 543 0006 00D0     		beq	.L83
 544              	.LVL46:
 545              	.L77:
 546 0008 08BD     		pop	{r3, pc}
 547              	.LVL47:
 548              	.L83:
 549              		.loc 1 630 0
 550 000a 0E49     		ldr	r1, .L85
 551              		.loc 1 609 0
 552 000c 0369     		ldr	r3, [r0, #16]
 553 000e 0022     		movs	r2, #0
 554              		.loc 1 630 0
 555 0010 8842     		cmp	r0, r1
 556              		.loc 1 609 0
 557 0012 1A60     		str	r2, [r3]
 558              		.loc 1 610 0
 559 0014 DA60     		str	r2, [r3, #12]
 560              		.loc 1 611 0
 561 0016 1A61     		str	r2, [r3, #16]
 562              		.loc 1 630 0
 563 0018 0BD0     		beq	.L84
 564              		.loc 1 636 0
 565 001a 0B4B     		ldr	r3, .L85+4
 566 001c 9842     		cmp	r0, r3
 567 001e F3D1     		bne	.L77
 568              		.loc 1 637 0
 569 0020 1E20     		movs	r0, #30
 570              	.LVL48:
ARM GAS  /tmp/ccXmtIij.s 			page 11


 571 0022 FFF7FEFF 		bl	nvicDisableVector
 572              	.LVL49:
 573              		.loc 1 638 0
 574 0026 094A     		ldr	r2, .L85+8
 575 0028 136C     		ldr	r3, [r2, #64]
 576 002a 23F00403 		bic	r3, r3, #4
 577 002e 1364     		str	r3, [r2, #64]
 578 0030 EAE7     		b	.L77
 579              	.LVL50:
 580              	.L84:
 581              		.loc 1 631 0
 582 0032 1D20     		movs	r0, #29
 583              	.LVL51:
 584 0034 FFF7FEFF 		bl	nvicDisableVector
 585              	.LVL52:
 586              		.loc 1 632 0
 587 0038 044A     		ldr	r2, .L85+8
 588 003a 136C     		ldr	r3, [r2, #64]
 589 003c 23F00203 		bic	r3, r3, #2
 590 0040 1364     		str	r3, [r2, #64]
 591 0042 08BD     		pop	{r3, pc}
 592              	.L86:
 593              		.align	2
 594              	.L85:
 595 0044 00000000 		.word	.LANCHOR0
 596 0048 00000000 		.word	.LANCHOR1
 597 004c 00380240 		.word	1073887232
 598              		.cfi_endproc
 599              	.LFE123:
 600              		.size	pwm_lld_stop, .-pwm_lld_stop
 601              		.section	.text.pwm_lld_enable_channel,"ax",%progbits
 602              		.align	2
 603              		.p2align 4,,15
 604              		.global	pwm_lld_enable_channel
 605              		.thumb
 606              		.thumb_func
 607              		.type	pwm_lld_enable_channel, %function
 608              	pwm_lld_enable_channel:
 609              	.LFB124:
 610              		.loc 1 677 0
 611              		.cfi_startproc
 612              		@ args = 0, pretend = 0, frame = 0
 613              		@ frame_needed = 0, uses_anonymous_args = 0
 614              		@ link register save eliminated.
 615              	.LVL53:
 616              		.loc 1 682 0
 617 0000 4368     		ldr	r3, [r0, #4]
 618              		.loc 1 677 0
 619 0002 10B4     		push	{r4}
 620              		.cfi_def_cfa_offset 4
 621              		.cfi_offset 4, -4
 622              		.loc 1 679 0
 623 0004 0469     		ldr	r4, [r0, #16]
 624              		.loc 1 682 0
 625 0006 03EBC100 		add	r0, r3, r1, lsl #3
 626              	.LVL54:
 627              		.loc 1 679 0
ARM GAS  /tmp/ccXmtIij.s 			page 12


 628 000a 01F10C03 		add	r3, r1, #12
 629              		.loc 1 682 0
 630 000e 0069     		ldr	r0, [r0, #16]
 631              		.loc 1 679 0
 632 0010 04EB8303 		add	r3, r4, r3, lsl #2
 633 0014 5A60     		str	r2, [r3, #4]
 634              		.loc 1 682 0
 635 0016 40B1     		cbz	r0, .L87
 636              	.LBB2:
 637              		.loc 1 686 0
 638 0018 0223     		movs	r3, #2
 639              		.loc 1 683 0
 640 001a E268     		ldr	r2, [r4, #12]
 641              	.LVL55:
 642              		.loc 1 686 0
 643 001c 8B40     		lsls	r3, r3, r1
 644 001e 1342     		tst	r3, r2
 645 0020 03D1     		bne	.L87
 646              		.loc 1 687 0
 647 0022 1A43     		orrs	r2, r2, r3
 648              	.LVL56:
 649              		.loc 1 688 0
 650 0024 DB43     		mvns	r3, r3
 651              		.loc 1 687 0
 652 0026 E260     		str	r2, [r4, #12]
 653              		.loc 1 688 0
 654 0028 2361     		str	r3, [r4, #16]
 655              	.L87:
 656              	.LBE2:
 657              		.loc 1 691 0
 658 002a 5DF8044B 		ldr	r4, [sp], #4
 659              		.cfi_restore 4
 660              		.cfi_def_cfa_offset 0
 661 002e 7047     		bx	lr
 662              		.cfi_endproc
 663              	.LFE124:
 664              		.size	pwm_lld_enable_channel, .-pwm_lld_enable_channel
 665              		.section	.text.pwm_lld_disable_channel,"ax",%progbits
 666              		.align	2
 667              		.p2align 4,,15
 668              		.global	pwm_lld_disable_channel
 669              		.thumb
 670              		.thumb_func
 671              		.type	pwm_lld_disable_channel, %function
 672              	pwm_lld_disable_channel:
 673              	.LFB125:
 674              		.loc 1 705 0
 675              		.cfi_startproc
 676              		@ args = 0, pretend = 0, frame = 0
 677              		@ frame_needed = 0, uses_anonymous_args = 0
 678              		@ link register save eliminated.
 679              	.LVL57:
 680              		.loc 1 707 0
 681 0000 0369     		ldr	r3, [r0, #16]
 682 0002 01F10C02 		add	r2, r1, #12
 683 0006 03EB8202 		add	r2, r3, r2, lsl #2
 684 000a 0020     		movs	r0, #0
ARM GAS  /tmp/ccXmtIij.s 			page 13


 685              	.LVL58:
 686 000c 5060     		str	r0, [r2, #4]
 687              		.loc 1 708 0
 688 000e D868     		ldr	r0, [r3, #12]
 689 0010 0222     		movs	r2, #2
 690 0012 8A40     		lsls	r2, r2, r1
 691 0014 20EA0202 		bic	r2, r0, r2
 692 0018 DA60     		str	r2, [r3, #12]
 693 001a 7047     		bx	lr
 694              		.cfi_endproc
 695              	.LFE125:
 696              		.size	pwm_lld_disable_channel, .-pwm_lld_disable_channel
 697              		.global	PWMD4
 698              		.global	PWMD3
 699              		.section	.bss.PWMD3,"aw",%nobits
 700              		.align	2
 701              		.set	.LANCHOR0,. + 0
 702              		.type	PWMD3, %object
 703              		.size	PWMD3, 20
 704              	PWMD3:
 705 0000 00000000 		.space	20
 705      00000000 
 705      00000000 
 705      00000000 
 705      00000000 
 706              		.section	.bss.PWMD4,"aw",%nobits
 707              		.align	2
 708              		.set	.LANCHOR1,. + 0
 709              		.type	PWMD4, %object
 710              		.size	PWMD4, 20
 711              	PWMD4:
 712 0000 00000000 		.space	20
 712      00000000 
 712      00000000 
 712      00000000 
 712      00000000 
 713              		.section	.rodata.str1.4,"aMS",%progbits,1
 714              		.align	2
 715              	.LC0:
 716 0000 70776D5F 		.ascii	"pwm_lld_start(), #1\000"
 716      6C6C645F 
 716      73746172 
 716      7428292C 
 716      20233100 
 717              		.text
 718              	.Letext0:
 719              		.file 2 "/usr/include/newlib/machine/_default_types.h"
 720              		.file 3 "/usr/include/newlib/sys/_stdint.h"
 721              		.file 4 "ChibiOS_2.6.5/os/hal/platforms/STM32F4xx/stm32f4xx.h"
 722              		.file 5 "ChibiOS_2.6.5/os/hal/include/pwm.h"
 723              		.file 6 "ChibiOS_2.6.5/os/hal/platforms/STM32/TIMv1/pwm_lld.h"
 724              		.file 7 "ChibiOS_2.6.5/os/hal/platforms/STM32/TIMv1/stm32_tim.h"
 725              		.file 8 "ChibiOS_2.6.5/os/ports/common/ARMCMx/CMSIS/include/core_cm4.h"
 726              		.file 9 "ChibiOS_2.6.5/os/kernel/include/chdebug.h"
 727              		.file 10 "ChibiOS_2.6.5/os/ports/GCC/ARMCMx/chcore_v7m.h"
 728              		.file 11 "ChibiOS_2.6.5/os/ports/common/ARMCMx/nvic.h"