ARM GAS  /tmp/ccj2QjZx.s 			page 1


   1              		.syntax unified
   2              		.cpu cortex-m4
   3              		.fpu softvfp
   4              		.eabi_attribute 20, 1
   5              		.eabi_attribute 21, 1
   6              		.eabi_attribute 23, 3
   7              		.eabi_attribute 24, 1
   8              		.eabi_attribute 25, 1
   9              		.eabi_attribute 26, 1
  10              		.eabi_attribute 30, 2
  11              		.eabi_attribute 34, 1
  12              		.eabi_attribute 18, 4
  13              		.thumb
  14              		.file	"hal.c"
  15              		.text
  16              	.Ltext0:
  17              		.cfi_sections	.debug_frame
  18              		.section	.text.halInit,"ax",%progbits
  19              		.align	2
  20              		.p2align 4,,15
  21              		.global	halInit
  22              		.thumb
  23              		.thumb_func
  24              		.type	halInit, %function
  25              	halInit:
  26              	.LFB118:
  27              		.file 1 "../../../os/hal/src/hal.c"
  28              		.loc 1 68 0
  29              		.cfi_startproc
  30              		@ args = 0, pretend = 0, frame = 0
  31              		@ frame_needed = 0, uses_anonymous_args = 0
  32 0000 08B5     		push	{r3, lr}
  33              		.cfi_def_cfa_offset 8
  34              		.cfi_offset 3, -8
  35              		.cfi_offset 14, -4
  36              		.loc 1 70 0
  37 0002 FFF7FEFF 		bl	hal_lld_init
  38              	.LVL0:
  39              		.loc 1 73 0
  40 0006 FFF7FEFF 		bl	tmInit
  41              	.LVL1:
  42              		.loc 1 76 0
  43 000a 0548     		ldr	r0, .L3
  44 000c FFF7FEFF 		bl	_pal_lld_init
  45              	.LVL2:
  46              		.loc 1 115 0
  47 0010 FFF7FEFF 		bl	usbInit
  48              	.LVL3:
  49              		.loc 1 121 0
  50 0014 FFF7FEFF 		bl	sduInit
  51              	.LVL4:
  52              		.loc 1 128 0
  53 0018 BDE80840 		pop	{r3, lr}
  54              		.cfi_restore 14
  55              		.cfi_restore 3
  56              		.cfi_def_cfa_offset 0
  57              		.loc 1 127 0
ARM GAS  /tmp/ccj2QjZx.s 			page 2


  58 001c FFF7FEBF 		b	boardInit
  59              	.LVL5:
  60              	.L4:
  61              		.align	2
  62              	.L3:
  63 0020 00000000 		.word	pal_default_config
  64              		.cfi_endproc
  65              	.LFE118:
  66              		.size	halInit, .-halInit
  67              		.section	.text.halIsCounterWithin,"ax",%progbits
  68              		.align	2
  69              		.p2align 4,,15
  70              		.global	halIsCounterWithin
  71              		.thumb
  72              		.thumb_func
  73              		.type	halIsCounterWithin, %function
  74              	halIsCounterWithin:
  75              	.LFB119:
  76              		.loc 1 174 0
  77              		.cfi_startproc
  78              		@ args = 0, pretend = 0, frame = 0
  79              		@ frame_needed = 0, uses_anonymous_args = 0
  80              		@ link register save eliminated.
  81              	.LVL6:
  82              		.loc 1 175 0
  83 0000 084B     		ldr	r3, .L15
  84              		.loc 1 177 0
  85 0002 8142     		cmp	r1, r0
  86              		.loc 1 175 0
  87 0004 5B68     		ldr	r3, [r3, #4]
  88              	.LVL7:
  89              		.loc 1 177 0
  90 0006 06D9     		bls	.L6
  91              		.loc 1 177 0 is_stmt 0 discriminator 1
  92 0008 8342     		cmp	r3, r0
  93 000a 08D3     		bcc	.L14
  94              	.L12:
  95 000c 8B42     		cmp	r3, r1
  96 000e 2CBF     		ite	cs
  97 0010 0020     		movcs	r0, #0
  98              	.LVL8:
  99 0012 0120     		movcc	r0, #1
 100 0014 7047     		bx	lr
 101              	.LVL9:
 102              	.L6:
 103              		.loc 1 178 0 is_stmt 1
 104 0016 8342     		cmp	r3, r0
 105 0018 F8D3     		bcc	.L12
 106 001a 0120     		movs	r0, #1
 107              	.LVL10:
 108              		.loc 1 179 0
 109 001c 7047     		bx	lr
 110              	.LVL11:
 111              	.L14:
 112 001e 0020     		movs	r0, #0
 113              	.LVL12:
 114 0020 7047     		bx	lr
ARM GAS  /tmp/ccj2QjZx.s 			page 3


 115              	.L16:
 116 0022 00BF     		.align	2
 117              	.L15:
 118 0024 001000E0 		.word	-536866816
 119              		.cfi_endproc
 120              	.LFE119:
 121              		.size	halIsCounterWithin, .-halIsCounterWithin
 122              		.section	.text.halPolledDelay,"ax",%progbits
 123              		.align	2
 124              		.p2align 4,,15
 125              		.global	halPolledDelay
 126              		.thumb
 127              		.thumb_func
 128              		.type	halPolledDelay, %function
 129              	halPolledDelay:
 130              	.LFB120:
 131              		.loc 1 193 0
 132              		.cfi_startproc
 133              		@ args = 0, pretend = 0, frame = 0
 134              		@ frame_needed = 0, uses_anonymous_args = 0
 135              		@ link register save eliminated.
 136              	.LVL13:
 137              		.loc 1 194 0
 138 0000 0849     		ldr	r1, .L28
 139 0002 4A68     		ldr	r2, [r1, #4]
 140              	.LVL14:
 141              		.loc 1 195 0
 142 0004 1044     		add	r0, r0, r2
 143              	.LVL15:
 144              	.L26:
 145              	.LBB4:
 146              	.LBB5:
 147              		.loc 1 177 0 discriminator 1
 148 0006 8242     		cmp	r2, r0
 149              		.loc 1 175 0 discriminator 1
 150 0008 4B68     		ldr	r3, [r1, #4]
 151              	.LVL16:
 152              		.loc 1 177 0 discriminator 1
 153 000a 02D2     		bcs	.L18
 154              		.loc 1 177 0 is_stmt 0
 155 000c 9A42     		cmp	r2, r3
 156 000e 02D9     		bls	.L27
 157 0010 7047     		bx	lr
 158              	.L18:
 159              		.loc 1 178 0 is_stmt 1
 160 0012 9A42     		cmp	r2, r3
 161 0014 F7D9     		bls	.L26
 162              	.L27:
 163 0016 9842     		cmp	r0, r3
 164 0018 94BF     		ite	ls
 165 001a 0023     		movls	r3, #0
 166              	.LVL17:
 167 001c 0123     		movhi	r3, #1
 168              	.LBE5:
 169              	.LBE4:
 170              		.loc 1 196 0
 171 001e 002B     		cmp	r3, #0
ARM GAS  /tmp/ccj2QjZx.s 			page 4


 172 0020 F1D1     		bne	.L26
 173 0022 7047     		bx	lr
 174              	.L29:
 175              		.align	2
 176              	.L28:
 177 0024 001000E0 		.word	-536866816
 178              		.cfi_endproc
 179              	.LFE120:
 180              		.size	halPolledDelay, .-halPolledDelay
 181              		.text
 182              	.Letext0:
 183              		.file 2 "/usr/include/newlib/machine/_default_types.h"
 184              		.file 3 "/usr/include/newlib/sys/_stdint.h"
 185              		.file 4 "../../../os/ports/GCC/ARMCMx/chtypes.h"
 186              		.file 5 "../../../os/ports/common/ARMCMx/nvic.h"
 187              		.file 6 "../../../os/hal/platforms/STM32F4xx/hal_lld.h"
 188              		.file 7 "../../../os/hal/platforms/STM32/GPIOv2/pal_lld.h"
 189              		.file 8 "../../../os/ports/common/ARMCMx/CMSIS/include/core_cm4.h"
 190              		.file 9 "../../../os/hal/include/tm.h"
 191              		.file 10 "../../../os/hal/include/usb.h"
 192              		.file 11 "../../../os/hal/include/serial_usb.h"
 193              		.file 12 "../../../boards/OLIMEX_STM32_E407/board.h"