ARM GAS  /tmp/ccwfquuN.s 			page 1


   1              		.syntax unified
   2              		.cpu cortex-m4
   3              		.fpu softvfp
   4              		.eabi_attribute 20, 1
   5              		.eabi_attribute 21, 1
   6              		.eabi_attribute 23, 3
   7              		.eabi_attribute 24, 1
   8              		.eabi_attribute 25, 1
   9              		.eabi_attribute 26, 1
  10              		.eabi_attribute 30, 2
  11              		.eabi_attribute 34, 1
  12              		.eabi_attribute 18, 4
  13              		.thumb
  14              		.file	"hal_lld.c"
  15              		.text
  16              	.Ltext0:
  17              		.cfi_sections	.debug_frame
  18              		.section	.text.hal_lld_init,"ax",%progbits
  19              		.align	2
  20              		.p2align 4,,15
  21              		.global	hal_lld_init
  22              		.thumb
  23              		.thumb_func
  24              		.type	hal_lld_init, %function
  25              	hal_lld_init:
  26              	.LFB119:
  27              		.file 1 "../../../os/hal/platforms/STM32F4xx/hal_lld.c"
  28              		.loc 1 111 0
  29              		.cfi_startproc
  30              		@ args = 0, pretend = 0, frame = 0
  31              		@ frame_needed = 0, uses_anonymous_args = 0
  32              		.loc 1 115 0
  33 0000 1F4B     		ldr	r3, .L8
  34              		.loc 1 121 0
  35 0002 2049     		ldr	r1, .L8+4
  36              		.loc 1 115 0
  37 0004 1A69     		ldr	r2, [r3, #16]
  38 0006 4FF0FF30 		mov	r0, #-1
  39 000a 0022     		movs	r2, #0
  40              		.loc 1 111 0
  41 000c F0B5     		push	{r4, r5, r6, r7, lr}
  42              		.cfi_def_cfa_offset 20
  43              		.cfi_offset 4, -20
  44              		.cfi_offset 5, -16
  45              		.cfi_offset 6, -12
  46              		.cfi_offset 7, -8
  47              		.cfi_offset 14, -4
  48              		.loc 1 115 0
  49 000e 1861     		str	r0, [r3, #16]
  50 0010 1A61     		str	r2, [r3, #16]
  51              		.loc 1 116 0
  52 0012 5C69     		ldr	r4, [r3, #20]
  53 0014 5861     		str	r0, [r3, #20]
  54 0016 5A61     		str	r2, [r3, #20]
  55              		.loc 1 117 0
  56 0018 1C6A     		ldr	r4, [r3, #32]
  57              		.loc 1 128 0
ARM GAS  /tmp/ccwfquuN.s 			page 2


  58 001a 1B4F     		ldr	r7, .L8+8
  59              		.loc 1 121 0
  60 001c DFF874E0 		ldr	lr, .L8+20
  61              		.loc 1 129 0
  62 0020 1A4E     		ldr	r6, .L8+12
  63              	.LBB4:
  64              	.LBB5:
  65              		.loc 1 54 0
  66 0022 1B4D     		ldr	r5, .L8+16
  67              	.LBE5:
  68              	.LBE4:
  69              		.loc 1 117 0
  70 0024 64F08054 		orn	r4, r4, #268435456
  71 0028 1C62     		str	r4, [r3, #32]
  72 002a 1A62     		str	r2, [r3, #32]
  73              		.loc 1 123 0
  74 002c 0724     		movs	r4, #7
  75              		.loc 1 118 0
  76 002e D3F824C0 		ldr	ip, [r3, #36]
  77 0032 5862     		str	r0, [r3, #36]
  78 0034 5A62     		str	r2, [r3, #36]
  79              		.loc 1 121 0
  80 0036 C1F804E0 		str	lr, [r1, #4]
  81              		.loc 1 122 0
  82 003a 8A60     		str	r2, [r1, #8]
  83              		.loc 1 123 0
  84 003c 0C60     		str	r4, [r1]
  85              		.loc 1 128 0
  86 003e F968     		ldr	r1, [r7, #12]
  87 0040 41F08071 		orr	r1, r1, #16777216
  88 0044 F960     		str	r1, [r7, #12]
  89              		.loc 1 129 0
  90 0046 3168     		ldr	r1, [r6]
  91 0048 41F00101 		orr	r1, r1, #1
  92 004c 3160     		str	r1, [r6]
  93              		.loc 1 132 0
  94 004e 196C     		ldr	r1, [r3, #64]
  95 0050 41F08051 		orr	r1, r1, #268435456
  96 0054 1964     		str	r1, [r3, #64]
  97              	.LBB7:
  98              	.LBB6:
  99              		.loc 1 54 0
 100 0056 2968     		ldr	r1, [r5]
 101 0058 41F48071 		orr	r1, r1, #256
 102 005c 2960     		str	r1, [r5]
 103              		.loc 1 57 0
 104 005e 196F     		ldr	r1, [r3, #112]
 105 0060 01F44071 		and	r1, r1, #768
 106 0064 B1F5007F 		cmp	r1, #512
 107 0068 03D0     		beq	.L2
 108              		.loc 1 59 0
 109 006a 4FF48031 		mov	r1, #65536
 110 006e 1967     		str	r1, [r3, #112]
 111              		.loc 1 60 0
 112 0070 1A67     		str	r2, [r3, #112]
 113              	.L2:
 114              		.loc 1 94 0
ARM GAS  /tmp/ccwfquuN.s 			page 3


 115 0072 074A     		ldr	r2, .L8+16
 116 0074 5368     		ldr	r3, [r2, #4]
 117 0076 23F40073 		bic	r3, r3, #512
 118 007a 5360     		str	r3, [r2, #4]
 119 007c F0BD     		pop	{r4, r5, r6, r7, pc}
 120              	.L9:
 121 007e 00BF     		.align	2
 122              	.L8:
 123 0080 00380240 		.word	1073887232
 124 0084 10E000E0 		.word	-536813552
 125 0088 F0ED00E0 		.word	-536810000
 126 008c 001000E0 		.word	-536866816
 127 0090 00700040 		.word	1073770496
 128 0094 3F900200 		.word	167999
 129              	.LBE6:
 130              	.LBE7:
 131              		.cfi_endproc
 132              	.LFE119:
 133              		.size	hal_lld_init, .-hal_lld_init
 134              		.section	.text.stm32_clock_init,"ax",%progbits
 135              		.align	2
 136              		.p2align 4,,15
 137              		.global	stm32_clock_init
 138              		.thumb
 139              		.thumb_func
 140              		.type	stm32_clock_init, %function
 141              	stm32_clock_init:
 142              	.LFB120:
 143              		.loc 1 154 0
 144              		.cfi_startproc
 145              		@ args = 0, pretend = 0, frame = 0
 146              		@ frame_needed = 0, uses_anonymous_args = 0
 147              		@ link register save eliminated.
 148              		.loc 1 158 0
 149 0000 2A4A     		ldr	r2, .L31
 150              		.loc 1 162 0
 151 0002 2B4B     		ldr	r3, .L31+4
 152              		.loc 1 158 0
 153 0004 4FF08050 		mov	r0, #268435456
 154              		.loc 1 162 0
 155 0008 4FF44041 		mov	r1, #49152
 156              		.loc 1 158 0
 157 000c 1064     		str	r0, [r2, #64]
 158              		.loc 1 162 0
 159 000e 1960     		str	r1, [r3]
 160              		.loc 1 169 0
 161 0010 1368     		ldr	r3, [r2]
 162 0012 43F00103 		orr	r3, r3, #1
 163 0016 1360     		str	r3, [r2]
 164              	.L11:
 165              		.loc 1 170 0 discriminator 1
 166 0018 1368     		ldr	r3, [r2]
 167 001a 2449     		ldr	r1, .L31
 168 001c 9807     		lsls	r0, r3, #30
 169 001e FBD5     		bpl	.L11
 170              		.loc 1 172 0
 171 0020 0B68     		ldr	r3, [r1]
ARM GAS  /tmp/ccwfquuN.s 			page 4


 172              		.loc 1 173 0
 173 0022 0022     		movs	r2, #0
 174              		.loc 1 172 0
 175 0024 03F0F903 		and	r3, r3, #249
 176 0028 0B60     		str	r3, [r1]
 177              		.loc 1 174 0
 178 002a 0846     		mov	r0, r1
 179              		.loc 1 173 0
 180 002c 8A60     		str	r2, [r1, #8]
 181              	.L12:
 182              		.loc 1 174 0 discriminator 1
 183 002e 8268     		ldr	r2, [r0, #8]
 184 0030 1E4B     		ldr	r3, .L31
 185 0032 12F00C0F 		tst	r2, #12
 186 0036 FAD1     		bne	.L12
 187              		.loc 1 184 0
 188 0038 1A68     		ldr	r2, [r3]
 189 003a 42F48032 		orr	r2, r2, #65536
 190 003e 1A60     		str	r2, [r3]
 191              		.loc 1 186 0
 192 0040 1A46     		mov	r2, r3
 193              	.L13:
 194              		.loc 1 186 0 is_stmt 0 discriminator 1
 195 0042 1168     		ldr	r1, [r2]
 196 0044 194B     		ldr	r3, .L31
 197 0046 8903     		lsls	r1, r1, #14
 198 0048 FBD5     		bpl	.L13
 199              		.loc 1 192 0 is_stmt 1
 200 004a 5A6F     		ldr	r2, [r3, #116]
 201 004c 42F00102 		orr	r2, r2, #1
 202 0050 5A67     		str	r2, [r3, #116]
 203              	.L14:
 204              		.loc 1 193 0 discriminator 1
 205 0052 5A6F     		ldr	r2, [r3, #116]
 206 0054 1549     		ldr	r1, .L31
 207 0056 9007     		lsls	r0, r2, #30
 208 0058 FBD5     		bpl	.L14
 209              		.loc 1 199 0
 210 005a 164B     		ldr	r3, .L31+8
 211 005c 4B60     		str	r3, [r1, #4]
 212              		.loc 1 201 0
 213 005e 0B68     		ldr	r3, [r1]
 214              		.loc 1 205 0
 215 0060 134A     		ldr	r2, .L31+4
 216              		.loc 1 201 0
 217 0062 43F08073 		orr	r3, r3, #16777216
 218 0066 0B60     		str	r3, [r1]
 219              	.L15:
 220              		.loc 1 205 0 discriminator 1
 221 0068 5368     		ldr	r3, [r2, #4]
 222 006a 5904     		lsls	r1, r3, #17
 223 006c FCD5     		bpl	.L15
 224              		.loc 1 221 0 discriminator 1
 225 006e 0F49     		ldr	r1, .L31
 226              	.L25:
 227 0070 0A68     		ldr	r2, [r1]
 228 0072 0E4B     		ldr	r3, .L31
ARM GAS  /tmp/ccwfquuN.s 			page 5


 229 0074 9201     		lsls	r2, r2, #6
 230 0076 FBD5     		bpl	.L25
 231              		.loc 1 249 0
 232 0078 0F4A     		ldr	r2, .L31+12
 233              		.loc 1 236 0
 234 007a 1049     		ldr	r1, .L31+16
 235 007c 9960     		str	r1, [r3, #8]
 236              		.loc 1 249 0
 237 007e 40F20571 		movw	r1, #1797
 238 0082 1160     		str	r1, [r2]
 239              		.loc 1 255 0
 240 0084 9A68     		ldr	r2, [r3, #8]
 241 0086 42F00202 		orr	r2, r2, #2
 242 008a 9A60     		str	r2, [r3, #8]
 243              		.loc 1 256 0
 244 008c 1A46     		mov	r2, r3
 245              	.L17:
 246              		.loc 1 256 0 is_stmt 0 discriminator 1
 247 008e 9368     		ldr	r3, [r2, #8]
 248 0090 0649     		ldr	r1, .L31
 249 0092 03F00C03 		and	r3, r3, #12
 250 0096 082B     		cmp	r3, #8
 251 0098 F9D1     		bne	.L17
 252              		.loc 1 263 0 is_stmt 1
 253 009a 4B6C     		ldr	r3, [r1, #68]
 254 009c 43F48043 		orr	r3, r3, #16384
 255 00a0 4B64     		str	r3, [r1, #68]
 256 00a2 4B6E     		ldr	r3, [r1, #100]
 257 00a4 43F48043 		orr	r3, r3, #16384
 258 00a8 4B66     		str	r3, [r1, #100]
 259 00aa 7047     		bx	lr
 260              	.L32:
 261              		.align	2
 262              	.L31:
 263 00ac 00380240 		.word	1073887232
 264 00b0 00700040 		.word	1073770496
 265 00b4 0C544007 		.word	121656332
 266 00b8 003C0240 		.word	1073888256
 267 00bc 00940838 		.word	940086272
 268              		.cfi_endproc
 269              	.LFE120:
 270              		.size	stm32_clock_init, .-stm32_clock_init
 271              		.text
 272              	.Letext0:
 273              		.file 2 "/usr/include/newlib/machine/_default_types.h"
 274              		.file 3 "/usr/include/newlib/sys/_stdint.h"
 275              		.file 4 "../../../os/ports/common/ARMCMx/nvic.h"
 276              		.file 5 "../../../os/ports/common/ARMCMx/CMSIS/include/core_cm4.h"
 277              		.file 6 "../../../os/hal/platforms/STM32F4xx/stm32f4xx.h"
 278              		.section	.debug_info,"",%progbits
 279              	.Ldebug_info0:
 280 0000 7C040000 		.4byte	0x47c
 281 0004 0400     		.2byte	0x4
 282 0006 00000000 		.4byte	.Ldebug_abbrev0
 283 000a 04       		.byte	0x4
 284 000b 01       		.uleb128 0x1
 285 000c 13000000 		.4byte	.LASF70
ARM GAS  /tmp/ccwfquuN.s 			page 6


 286 0010 01       		.byte	0x1
 287 0011 CB020000 		.4byte	.LASF71
 288 0015 10010000 		.4byte	.LASF72
 289 0019 18000000 		.4byte	.Ldebug_ranges0+0x18
 290 001d 00000000 		.4byte	0
 291 0021 00000000 		.4byte	.Ldebug_line0
 292 0025 02       		.uleb128 0x2
 293 0026 04       		.byte	0x4
 294 0027 05       		.byte	0x5
 295 0028 696E7400 		.ascii	"int\000"
 296 002c 03       		.uleb128 0x3
 297 002d 04       		.byte	0x4
 298 002e 07       		.byte	0x7
 299 002f B5020000 		.4byte	.LASF0
 300 0033 03       		.uleb128 0x3
 301 0034 01       		.byte	0x1
 302 0035 06       		.byte	0x6
 303 0036 89020000 		.4byte	.LASF1
 304 003a 03       		.uleb128 0x3
 305 003b 01       		.byte	0x1
 306 003c 08       		.byte	0x8
 307 003d 73020000 		.4byte	.LASF2
 308 0041 03       		.uleb128 0x3
 309 0042 02       		.byte	0x2
 310 0043 05       		.byte	0x5
 311 0044 D4000000 		.4byte	.LASF3
 312 0048 03       		.uleb128 0x3
 313 0049 02       		.byte	0x2
 314 004a 07       		.byte	0x7
 315 004b 2D030000 		.4byte	.LASF4
 316 004f 04       		.uleb128 0x4
 317 0050 C6030000 		.4byte	.LASF6
 318 0054 02       		.byte	0x2
 319 0055 3F       		.byte	0x3f
 320 0056 5A000000 		.4byte	0x5a
 321 005a 03       		.uleb128 0x3
 322 005b 04       		.byte	0x4
 323 005c 05       		.byte	0x5
 324 005d 29020000 		.4byte	.LASF5
 325 0061 04       		.uleb128 0x4
 326 0062 84010000 		.4byte	.LASF7
 327 0066 02       		.byte	0x2
 328 0067 41       		.byte	0x41
 329 0068 6C000000 		.4byte	0x6c
 330 006c 03       		.uleb128 0x3
 331 006d 04       		.byte	0x4
 332 006e 07       		.byte	0x7
 333 006f F9020000 		.4byte	.LASF8
 334 0073 03       		.uleb128 0x3
 335 0074 08       		.byte	0x8
 336 0075 05       		.byte	0x5
 337 0076 08020000 		.4byte	.LASF9
 338 007a 03       		.uleb128 0x3
 339 007b 08       		.byte	0x8
 340 007c 07       		.byte	0x7
 341 007d 95020000 		.4byte	.LASF10
 342 0081 04       		.uleb128 0x4
ARM GAS  /tmp/ccwfquuN.s 			page 7


 343 0082 57030000 		.4byte	.LASF11
 344 0086 03       		.byte	0x3
 345 0087 1F       		.byte	0x1f
 346 0088 4F000000 		.4byte	0x4f
 347 008c 04       		.uleb128 0x4
 348 008d AC020000 		.4byte	.LASF12
 349 0091 03       		.byte	0x3
 350 0092 20       		.byte	0x20
 351 0093 61000000 		.4byte	0x61
 352 0097 03       		.uleb128 0x3
 353 0098 01       		.byte	0x1
 354 0099 02       		.byte	0x2
 355 009a 5F030000 		.4byte	.LASF13
 356 009e 04       		.uleb128 0x4
 357 009f F8010000 		.4byte	.LASF14
 358 00a3 04       		.byte	0x4
 359 00a4 3A       		.byte	0x3a
 360 00a5 A9000000 		.4byte	0xa9
 361 00a9 05       		.uleb128 0x5
 362 00aa 8C000000 		.4byte	0x8c
 363 00ae 03       		.uleb128 0x3
 364 00af 04       		.byte	0x4
 365 00b0 07       		.byte	0x7
 366 00b1 DE000000 		.4byte	.LASF15
 367 00b5 06       		.uleb128 0x6
 368 00b6 10       		.byte	0x10
 369 00b7 04       		.byte	0x4
 370 00b8 F1       		.byte	0xf1
 371 00b9 EE000000 		.4byte	0xee
 372 00bd 07       		.uleb128 0x7
 373 00be 23020000 		.4byte	.LASF16
 374 00c2 04       		.byte	0x4
 375 00c3 F2       		.byte	0xf2
 376 00c4 9E000000 		.4byte	0x9e
 377 00c8 00       		.byte	0
 378 00c9 07       		.uleb128 0x7
 379 00ca C9010000 		.4byte	.LASF17
 380 00ce 04       		.byte	0x4
 381 00cf F3       		.byte	0xf3
 382 00d0 9E000000 		.4byte	0x9e
 383 00d4 04       		.byte	0x4
 384 00d5 07       		.uleb128 0x7
 385 00d6 EA010000 		.4byte	.LASF18
 386 00da 04       		.byte	0x4
 387 00db F4       		.byte	0xf4
 388 00dc 9E000000 		.4byte	0x9e
 389 00e0 08       		.byte	0x8
 390 00e1 07       		.uleb128 0x7
 391 00e2 CE000000 		.4byte	.LASF19
 392 00e6 04       		.byte	0x4
 393 00e7 F5       		.byte	0xf5
 394 00e8 9E000000 		.4byte	0x9e
 395 00ec 0C       		.byte	0xc
 396 00ed 00       		.byte	0
 397 00ee 04       		.uleb128 0x4
 398 00ef 4F030000 		.4byte	.LASF20
 399 00f3 04       		.byte	0x4
ARM GAS  /tmp/ccwfquuN.s 			page 8


 400 00f4 F6       		.byte	0xf6
 401 00f5 B5000000 		.4byte	0xb5
 402 00f9 08       		.uleb128 0x8
 403 00fa 20       		.byte	0x20
 404 00fb 04       		.byte	0x4
 405 00fc 0601     		.2byte	0x106
 406 00fe 6B010000 		.4byte	0x16b
 407 0102 09       		.uleb128 0x9
 408 0103 9D010000 		.4byte	.LASF21
 409 0107 04       		.byte	0x4
 410 0108 0701     		.2byte	0x107
 411 010a 9E000000 		.4byte	0x9e
 412 010e 00       		.byte	0
 413 010f 09       		.uleb128 0x9
 414 0110 16020000 		.4byte	.LASF22
 415 0114 04       		.byte	0x4
 416 0115 0801     		.2byte	0x108
 417 0117 9E000000 		.4byte	0x9e
 418 011b 04       		.byte	0x4
 419 011c 09       		.uleb128 0x9
 420 011d B0010000 		.4byte	.LASF23
 421 0121 04       		.byte	0x4
 422 0122 0901     		.2byte	0x109
 423 0124 9E000000 		.4byte	0x9e
 424 0128 08       		.byte	0x8
 425 0129 09       		.uleb128 0x9
 426 012a 6C020000 		.4byte	.LASF24
 427 012e 04       		.byte	0x4
 428 012f 0A01     		.2byte	0x10a
 429 0131 9E000000 		.4byte	0x9e
 430 0135 0C       		.byte	0xc
 431 0136 09       		.uleb128 0x9
 432 0137 BD030000 		.4byte	.LASF25
 433 013b 04       		.byte	0x4
 434 013c 0B01     		.2byte	0x10b
 435 013e 9E000000 		.4byte	0x9e
 436 0142 10       		.byte	0x10
 437 0143 09       		.uleb128 0x9
 438 0144 D0030000 		.4byte	.LASF26
 439 0148 04       		.byte	0x4
 440 0149 0C01     		.2byte	0x10c
 441 014b 9E000000 		.4byte	0x9e
 442 014f 14       		.byte	0x14
 443 0150 09       		.uleb128 0x9
 444 0151 F1000000 		.4byte	.LASF27
 445 0155 04       		.byte	0x4
 446 0156 0D01     		.2byte	0x10d
 447 0158 9E000000 		.4byte	0x9e
 448 015c 18       		.byte	0x18
 449 015d 09       		.uleb128 0x9
 450 015e EC000000 		.4byte	.LASF28
 451 0162 04       		.byte	0x4
 452 0163 0E01     		.2byte	0x10e
 453 0165 9E000000 		.4byte	0x9e
 454 0169 1C       		.byte	0x1c
 455 016a 00       		.byte	0
 456 016b 0A       		.uleb128 0xa
ARM GAS  /tmp/ccwfquuN.s 			page 9


 457 016c 6F030000 		.4byte	.LASF29
 458 0170 04       		.byte	0x4
 459 0171 0F01     		.2byte	0x10f
 460 0173 F9000000 		.4byte	0xf9
 461 0177 03       		.uleb128 0x3
 462 0178 01       		.byte	0x1
 463 0179 08       		.byte	0x8
 464 017a 4A030000 		.4byte	.LASF30
 465 017e 0B       		.uleb128 0xb
 466 017f A9000000 		.4byte	0xa9
 467 0183 0C       		.uleb128 0xc
 468 0184 8C000000 		.4byte	0x8c
 469 0188 93010000 		.4byte	0x193
 470 018c 0D       		.uleb128 0xd
 471 018d AE000000 		.4byte	0xae
 472 0191 01       		.byte	0x1
 473 0192 00       		.byte	0
 474 0193 08       		.uleb128 0x8
 475 0194 10       		.byte	0x10
 476 0195 05       		.byte	0x5
 477 0196 6002     		.2byte	0x260
 478 0198 D1010000 		.4byte	0x1d1
 479 019c 09       		.uleb128 0x9
 480 019d 9D010000 		.4byte	.LASF21
 481 01a1 05       		.byte	0x5
 482 01a2 6202     		.2byte	0x262
 483 01a4 A9000000 		.4byte	0xa9
 484 01a8 00       		.byte	0
 485 01a9 09       		.uleb128 0x9
 486 01aa D7030000 		.4byte	.LASF31
 487 01ae 05       		.byte	0x5
 488 01af 6302     		.2byte	0x263
 489 01b1 A9000000 		.4byte	0xa9
 490 01b5 04       		.byte	0x4
 491 01b6 0E       		.uleb128 0xe
 492 01b7 56414C00 		.ascii	"VAL\000"
 493 01bb 05       		.byte	0x5
 494 01bc 6402     		.2byte	0x264
 495 01be A9000000 		.4byte	0xa9
 496 01c2 08       		.byte	0x8
 497 01c3 09       		.uleb128 0x9
 498 01c4 1D020000 		.4byte	.LASF32
 499 01c8 05       		.byte	0x5
 500 01c9 6502     		.2byte	0x265
 501 01cb 7E010000 		.4byte	0x17e
 502 01cf 0C       		.byte	0xc
 503 01d0 00       		.byte	0
 504 01d1 0A       		.uleb128 0xa
 505 01d2 20030000 		.4byte	.LASF33
 506 01d6 05       		.byte	0x5
 507 01d7 6602     		.2byte	0x266
 508 01d9 93010000 		.4byte	0x193
 509 01dd 05       		.uleb128 0x5
 510 01de 81000000 		.4byte	0x81
 511 01e2 08       		.uleb128 0x8
 512 01e3 1C       		.byte	0x1c
 513 01e4 06       		.byte	0x6
ARM GAS  /tmp/ccwfquuN.s 			page 10


 514 01e5 3E03     		.2byte	0x33e
 515 01e7 45020000 		.4byte	0x245
 516 01eb 0E       		.uleb128 0xe
 517 01ec 41435200 		.ascii	"ACR\000"
 518 01f0 06       		.byte	0x6
 519 01f1 4003     		.2byte	0x340
 520 01f3 A9000000 		.4byte	0xa9
 521 01f7 00       		.byte	0
 522 01f8 09       		.uleb128 0x9
 523 01f9 67020000 		.4byte	.LASF34
 524 01fd 06       		.byte	0x6
 525 01fe 4103     		.2byte	0x341
 526 0200 A9000000 		.4byte	0xa9
 527 0204 04       		.byte	0x4
 528 0205 09       		.uleb128 0x9
 529 0206 00020000 		.4byte	.LASF35
 530 020a 06       		.byte	0x6
 531 020b 4203     		.2byte	0x342
 532 020d A9000000 		.4byte	0xa9
 533 0211 08       		.byte	0x8
 534 0212 0E       		.uleb128 0xe
 535 0213 535200   		.ascii	"SR\000"
 536 0216 06       		.byte	0x6
 537 0217 4303     		.2byte	0x343
 538 0219 A9000000 		.4byte	0xa9
 539 021d 0C       		.byte	0xc
 540 021e 0E       		.uleb128 0xe
 541 021f 435200   		.ascii	"CR\000"
 542 0222 06       		.byte	0x6
 543 0223 4403     		.2byte	0x344
 544 0225 A9000000 		.4byte	0xa9
 545 0229 10       		.byte	0x10
 546 022a 09       		.uleb128 0x9
 547 022b 15040000 		.4byte	.LASF36
 548 022f 06       		.byte	0x6
 549 0230 4503     		.2byte	0x345
 550 0232 A9000000 		.4byte	0xa9
 551 0236 14       		.byte	0x14
 552 0237 09       		.uleb128 0x9
 553 0238 58020000 		.4byte	.LASF37
 554 023c 06       		.byte	0x6
 555 023d 4603     		.2byte	0x346
 556 023f A9000000 		.4byte	0xa9
 557 0243 18       		.byte	0x18
 558 0244 00       		.byte	0
 559 0245 0A       		.uleb128 0xa
 560 0246 E5030000 		.4byte	.LASF38
 561 024a 06       		.byte	0x6
 562 024b 4703     		.2byte	0x347
 563 024d E2010000 		.4byte	0x1e2
 564 0251 08       		.uleb128 0x8
 565 0252 08       		.byte	0x8
 566 0253 06       		.byte	0x6
 567 0254 4E04     		.2byte	0x44e
 568 0256 74020000 		.4byte	0x274
 569 025a 0E       		.uleb128 0xe
 570 025b 435200   		.ascii	"CR\000"
ARM GAS  /tmp/ccwfquuN.s 			page 11


 571 025e 06       		.byte	0x6
 572 025f 5004     		.2byte	0x450
 573 0261 A9000000 		.4byte	0xa9
 574 0265 00       		.byte	0
 575 0266 0E       		.uleb128 0xe
 576 0267 43535200 		.ascii	"CSR\000"
 577 026b 06       		.byte	0x6
 578 026c 5104     		.2byte	0x451
 579 026e A9000000 		.4byte	0xa9
 580 0272 04       		.byte	0x4
 581 0273 00       		.byte	0
 582 0274 0A       		.uleb128 0xa
 583 0275 04010000 		.4byte	.LASF39
 584 0279 06       		.byte	0x6
 585 027a 5204     		.2byte	0x452
 586 027c 51020000 		.4byte	0x251
 587 0280 08       		.uleb128 0x8
 588 0281 90       		.byte	0x90
 589 0282 06       		.byte	0x6
 590 0283 5804     		.2byte	0x458
 591 0285 29040000 		.4byte	0x429
 592 0289 0E       		.uleb128 0xe
 593 028a 435200   		.ascii	"CR\000"
 594 028d 06       		.byte	0x6
 595 028e 5A04     		.2byte	0x45a
 596 0290 A9000000 		.4byte	0xa9
 597 0294 00       		.byte	0
 598 0295 09       		.uleb128 0x9
 599 0296 18030000 		.4byte	.LASF40
 600 029a 06       		.byte	0x6
 601 029b 5B04     		.2byte	0x45b
 602 029d A9000000 		.4byte	0xa9
 603 02a1 04       		.byte	0x4
 604 02a2 09       		.uleb128 0x9
 605 02a3 AB010000 		.4byte	.LASF41
 606 02a7 06       		.byte	0x6
 607 02a8 5C04     		.2byte	0x45c
 608 02aa A9000000 		.4byte	0xa9
 609 02ae 08       		.byte	0x8
 610 02af 0E       		.uleb128 0xe
 611 02b0 43495200 		.ascii	"CIR\000"
 612 02b4 06       		.byte	0x6
 613 02b5 5D04     		.2byte	0x45d
 614 02b7 A9000000 		.4byte	0xa9
 615 02bb 0C       		.byte	0xc
 616 02bc 09       		.uleb128 0x9
 617 02bd A2010000 		.4byte	.LASF42
 618 02c1 06       		.byte	0x6
 619 02c2 5E04     		.2byte	0x45e
 620 02c4 A9000000 		.4byte	0xa9
 621 02c8 10       		.byte	0x10
 622 02c9 09       		.uleb128 0x9
 623 02ca C2020000 		.4byte	.LASF43
 624 02ce 06       		.byte	0x6
 625 02cf 5F04     		.2byte	0x45f
 626 02d1 A9000000 		.4byte	0xa9
 627 02d5 14       		.byte	0x14
ARM GAS  /tmp/ccwfquuN.s 			page 12


 628 02d6 09       		.uleb128 0x9
 629 02d7 DC030000 		.4byte	.LASF44
 630 02db 06       		.byte	0x6
 631 02dc 6004     		.2byte	0x460
 632 02de A9000000 		.4byte	0xa9
 633 02e2 18       		.byte	0x18
 634 02e3 09       		.uleb128 0x9
 635 02e4 77030000 		.4byte	.LASF45
 636 02e8 06       		.byte	0x6
 637 02e9 6104     		.2byte	0x461
 638 02eb 8C000000 		.4byte	0x8c
 639 02ef 1C       		.byte	0x1c
 640 02f0 09       		.uleb128 0x9
 641 02f1 0A000000 		.4byte	.LASF46
 642 02f5 06       		.byte	0x6
 643 02f6 6204     		.2byte	0x462
 644 02f8 A9000000 		.4byte	0xa9
 645 02fc 20       		.byte	0x20
 646 02fd 09       		.uleb128 0x9
 647 02fe 3E020000 		.4byte	.LASF47
 648 0302 06       		.byte	0x6
 649 0303 6304     		.2byte	0x463
 650 0305 A9000000 		.4byte	0xa9
 651 0309 24       		.byte	0x24
 652 030a 09       		.uleb128 0x9
 653 030b 81030000 		.4byte	.LASF48
 654 030f 06       		.byte	0x6
 655 0310 6404     		.2byte	0x464
 656 0312 83010000 		.4byte	0x183
 657 0316 28       		.byte	0x28
 658 0317 09       		.uleb128 0x9
 659 0318 8F010000 		.4byte	.LASF49
 660 031c 06       		.byte	0x6
 661 031d 6504     		.2byte	0x465
 662 031f A9000000 		.4byte	0xa9
 663 0323 30       		.byte	0x30
 664 0324 09       		.uleb128 0x9
 665 0325 C6000000 		.4byte	.LASF50
 666 0329 06       		.byte	0x6
 667 032a 6604     		.2byte	0x466
 668 032c A9000000 		.4byte	0xa9
 669 0330 34       		.byte	0x34
 670 0331 09       		.uleb128 0x9
 671 0332 5F020000 		.4byte	.LASF51
 672 0336 06       		.byte	0x6
 673 0337 6704     		.2byte	0x467
 674 0339 A9000000 		.4byte	0xa9
 675 033d 38       		.byte	0x38
 676 033e 09       		.uleb128 0x9
 677 033f 8B030000 		.4byte	.LASF52
 678 0343 06       		.byte	0x6
 679 0344 6804     		.2byte	0x468
 680 0346 8C000000 		.4byte	0x8c
 681 034a 3C       		.byte	0x3c
 682 034b 09       		.uleb128 0x9
 683 034c C1010000 		.4byte	.LASF53
 684 0350 06       		.byte	0x6
ARM GAS  /tmp/ccwfquuN.s 			page 13


 685 0351 6904     		.2byte	0x469
 686 0353 A9000000 		.4byte	0xa9
 687 0357 40       		.byte	0x40
 688 0358 09       		.uleb128 0x9
 689 0359 81020000 		.4byte	.LASF54
 690 035d 06       		.byte	0x6
 691 035e 6A04     		.2byte	0x46a
 692 0360 A9000000 		.4byte	0xa9
 693 0364 44       		.byte	0x44
 694 0365 09       		.uleb128 0x9
 695 0366 95030000 		.4byte	.LASF55
 696 036a 06       		.byte	0x6
 697 036b 6B04     		.2byte	0x46b
 698 036d 83010000 		.4byte	0x183
 699 0371 48       		.byte	0x48
 700 0372 09       		.uleb128 0x9
 701 0373 00000000 		.4byte	.LASF56
 702 0377 06       		.byte	0x6
 703 0378 6C04     		.2byte	0x46c
 704 037a A9000000 		.4byte	0xa9
 705 037e 50       		.byte	0x50
 706 037f 09       		.uleb128 0x9
 707 0380 65030000 		.4byte	.LASF57
 708 0384 06       		.byte	0x6
 709 0385 6D04     		.2byte	0x46d
 710 0387 A9000000 		.4byte	0xa9
 711 038b 54       		.byte	0x54
 712 038c 09       		.uleb128 0x9
 713 038d B7010000 		.4byte	.LASF58
 714 0391 06       		.byte	0x6
 715 0392 6E04     		.2byte	0x46e
 716 0394 A9000000 		.4byte	0xa9
 717 0398 58       		.byte	0x58
 718 0399 09       		.uleb128 0x9
 719 039a 9F030000 		.4byte	.LASF59
 720 039e 06       		.byte	0x6
 721 039f 6F04     		.2byte	0x46f
 722 03a1 8C000000 		.4byte	0x8c
 723 03a5 5C       		.byte	0x5c
 724 03a6 09       		.uleb128 0x9
 725 03a7 40030000 		.4byte	.LASF60
 726 03ab 06       		.byte	0x6
 727 03ac 7004     		.2byte	0x470
 728 03ae A9000000 		.4byte	0xa9
 729 03b2 60       		.byte	0x60
 730 03b3 09       		.uleb128 0x9
 731 03b4 0B040000 		.4byte	.LASF61
 732 03b8 06       		.byte	0x6
 733 03b9 7104     		.2byte	0x471
 734 03bb A9000000 		.4byte	0xa9
 735 03bf 64       		.byte	0x64
 736 03c0 09       		.uleb128 0x9
 737 03c1 A9030000 		.4byte	.LASF62
 738 03c5 06       		.byte	0x6
 739 03c6 7204     		.2byte	0x472
 740 03c8 83010000 		.4byte	0x183
 741 03cc 68       		.byte	0x68
ARM GAS  /tmp/ccwfquuN.s 			page 14


 742 03cd 09       		.uleb128 0x9
 743 03ce E7000000 		.4byte	.LASF63
 744 03d2 06       		.byte	0x6
 745 03d3 7304     		.2byte	0x473
 746 03d5 A9000000 		.4byte	0xa9
 747 03d9 70       		.byte	0x70
 748 03da 0E       		.uleb128 0xe
 749 03db 43535200 		.ascii	"CSR\000"
 750 03df 06       		.byte	0x6
 751 03e0 7404     		.2byte	0x474
 752 03e2 A9000000 		.4byte	0xa9
 753 03e6 74       		.byte	0x74
 754 03e7 09       		.uleb128 0x9
 755 03e8 B3030000 		.4byte	.LASF64
 756 03ec 06       		.byte	0x6
 757 03ed 7504     		.2byte	0x475
 758 03ef 83010000 		.4byte	0x183
 759 03f3 78       		.byte	0x78
 760 03f4 09       		.uleb128 0x9
 761 03f5 97010000 		.4byte	.LASF65
 762 03f9 06       		.byte	0x6
 763 03fa 7604     		.2byte	0x476
 764 03fc A9000000 		.4byte	0xa9
 765 0400 80       		.byte	0x80
 766 0401 09       		.uleb128 0x9
 767 0402 F9000000 		.4byte	.LASF66
 768 0406 06       		.byte	0x6
 769 0407 7704     		.2byte	0x477
 770 0409 A9000000 		.4byte	0xa9
 771 040d 84       		.byte	0x84
 772 040e 09       		.uleb128 0x9
 773 040f 00040000 		.4byte	.LASF67
 774 0413 06       		.byte	0x6
 775 0414 7804     		.2byte	0x478
 776 0416 A9000000 		.4byte	0xa9
 777 041a 88       		.byte	0x88
 778 041b 09       		.uleb128 0x9
 779 041c F0010000 		.4byte	.LASF68
 780 0420 06       		.byte	0x6
 781 0421 7904     		.2byte	0x479
 782 0423 A9000000 		.4byte	0xa9
 783 0427 8C       		.byte	0x8c
 784 0428 00       		.byte	0
 785 0429 0A       		.uleb128 0xa
 786 042a 32020000 		.4byte	.LASF69
 787 042e 06       		.byte	0x6
 788 042f 7B04     		.2byte	0x47b
 789 0431 80020000 		.4byte	0x280
 790 0435 0F       		.uleb128 0xf
 791 0436 CF010000 		.4byte	.LASF73
 792 043a 01       		.byte	0x1
 793 043b 33       		.byte	0x33
 794 043c 01       		.byte	0x1
 795 043d 10       		.uleb128 0x10
 796 043e 0B030000 		.4byte	.LASF74
 797 0442 01       		.byte	0x1
 798 0443 6F       		.byte	0x6f
ARM GAS  /tmp/ccwfquuN.s 			page 15


 799 0444 00000000 		.4byte	.LFB119
 800 0448 98000000 		.4byte	.LFE119-.LFB119
 801 044c 01       		.uleb128 0x1
 802 044d 9C       		.byte	0x9c
 803 044e 62040000 		.4byte	0x462
 804 0452 11       		.uleb128 0x11
 805 0453 35040000 		.4byte	0x435
 806 0457 22000000 		.4byte	.LBB4
 807 045b 00000000 		.4byte	.Ldebug_ranges0+0
 808 045f 01       		.byte	0x1
 809 0460 87       		.byte	0x87
 810 0461 00       		.byte	0
 811 0462 12       		.uleb128 0x12
 812 0463 47020000 		.4byte	.LASF75
 813 0467 01       		.byte	0x1
 814 0468 9A       		.byte	0x9a
 815 0469 00000000 		.4byte	.LFB120
 816 046d C0000000 		.4byte	.LFE120-.LFB120
 817 0471 01       		.uleb128 0x1
 818 0472 9C       		.byte	0x9c
 819 0473 13       		.uleb128 0x13
 820 0474 F3030000 		.4byte	.LASF76
 821 0478 05       		.byte	0x5
 822 0479 9806     		.2byte	0x698
 823 047b DD010000 		.4byte	0x1dd
 824 047f 00       		.byte	0
 825              		.section	.debug_abbrev,"",%progbits
 826              	.Ldebug_abbrev0:
 827 0000 01       		.uleb128 0x1
 828 0001 11       		.uleb128 0x11
 829 0002 01       		.byte	0x1
 830 0003 25       		.uleb128 0x25
 831 0004 0E       		.uleb128 0xe
 832 0005 13       		.uleb128 0x13
 833 0006 0B       		.uleb128 0xb
 834 0007 03       		.uleb128 0x3
 835 0008 0E       		.uleb128 0xe
 836 0009 1B       		.uleb128 0x1b
 837 000a 0E       		.uleb128 0xe
 838 000b 55       		.uleb128 0x55
 839 000c 17       		.uleb128 0x17
 840 000d 11       		.uleb128 0x11
 841 000e 01       		.uleb128 0x1
 842 000f 10       		.uleb128 0x10
 843 0010 17       		.uleb128 0x17
 844 0011 00       		.byte	0
 845 0012 00       		.byte	0
 846 0013 02       		.uleb128 0x2
 847 0014 24       		.uleb128 0x24
 848 0015 00       		.byte	0
 849 0016 0B       		.uleb128 0xb
 850 0017 0B       		.uleb128 0xb
 851 0018 3E       		.uleb128 0x3e
 852 0019 0B       		.uleb128 0xb
 853 001a 03       		.uleb128 0x3
 854 001b 08       		.uleb128 0x8
 855 001c 00       		.byte	0
ARM GAS  /tmp/ccwfquuN.s 			page 16


 856 001d 00       		.byte	0
 857 001e 03       		.uleb128 0x3
 858 001f 24       		.uleb128 0x24
 859 0020 00       		.byte	0
 860 0021 0B       		.uleb128 0xb
 861 0022 0B       		.uleb128 0xb
 862 0023 3E       		.uleb128 0x3e
 863 0024 0B       		.uleb128 0xb
 864 0025 03       		.uleb128 0x3
 865 0026 0E       		.uleb128 0xe
 866 0027 00       		.byte	0
 867 0028 00       		.byte	0
 868 0029 04       		.uleb128 0x4
 869 002a 16       		.uleb128 0x16
 870 002b 00       		.byte	0
 871 002c 03       		.uleb128 0x3
 872 002d 0E       		.uleb128 0xe
 873 002e 3A       		.uleb128 0x3a
 874 002f 0B       		.uleb128 0xb
 875 0030 3B       		.uleb128 0x3b
 876 0031 0B       		.uleb128 0xb
 877 0032 49       		.uleb128 0x49
 878 0033 13       		.uleb128 0x13
 879 0034 00       		.byte	0
 880 0035 00       		.byte	0
 881 0036 05       		.uleb128 0x5
 882 0037 35       		.uleb128 0x35
 883 0038 00       		.byte	0
 884 0039 49       		.uleb128 0x49
 885 003a 13       		.uleb128 0x13
 886 003b 00       		.byte	0
 887 003c 00       		.byte	0
 888 003d 06       		.uleb128 0x6
 889 003e 13       		.uleb128 0x13
 890 003f 01       		.byte	0x1
 891 0040 0B       		.uleb128 0xb
 892 0041 0B       		.uleb128 0xb
 893 0042 3A       		.uleb128 0x3a
 894 0043 0B       		.uleb128 0xb
 895 0044 3B       		.uleb128 0x3b
 896 0045 0B       		.uleb128 0xb
 897 0046 01       		.uleb128 0x1
 898 0047 13       		.uleb128 0x13
 899 0048 00       		.byte	0
 900 0049 00       		.byte	0
 901 004a 07       		.uleb128 0x7
 902 004b 0D       		.uleb128 0xd
 903 004c 00       		.byte	0
 904 004d 03       		.uleb128 0x3
 905 004e 0E       		.uleb128 0xe
 906 004f 3A       		.uleb128 0x3a
 907 0050 0B       		.uleb128 0xb
 908 0051 3B       		.uleb128 0x3b
 909 0052 0B       		.uleb128 0xb
 910 0053 49       		.uleb128 0x49
 911 0054 13       		.uleb128 0x13
 912 0055 38       		.uleb128 0x38
ARM GAS  /tmp/ccwfquuN.s 			page 17


 913 0056 0B       		.uleb128 0xb
 914 0057 00       		.byte	0
 915 0058 00       		.byte	0
 916 0059 08       		.uleb128 0x8
 917 005a 13       		.uleb128 0x13
 918 005b 01       		.byte	0x1
 919 005c 0B       		.uleb128 0xb
 920 005d 0B       		.uleb128 0xb
 921 005e 3A       		.uleb128 0x3a
 922 005f 0B       		.uleb128 0xb
 923 0060 3B       		.uleb128 0x3b
 924 0061 05       		.uleb128 0x5
 925 0062 01       		.uleb128 0x1
 926 0063 13       		.uleb128 0x13
 927 0064 00       		.byte	0
 928 0065 00       		.byte	0
 929 0066 09       		.uleb128 0x9
 930 0067 0D       		.uleb128 0xd
 931 0068 00       		.byte	0
 932 0069 03       		.uleb128 0x3
 933 006a 0E       		.uleb128 0xe
 934 006b 3A       		.uleb128 0x3a
 935 006c 0B       		.uleb128 0xb
 936 006d 3B       		.uleb128 0x3b
 937 006e 05       		.uleb128 0x5
 938 006f 49       		.uleb128 0x49
 939 0070 13       		.uleb128 0x13
 940 0071 38       		.uleb128 0x38
 941 0072 0B       		.uleb128 0xb
 942 0073 00       		.byte	0
 943 0074 00       		.byte	0
 944 0075 0A       		.uleb128 0xa
 945 0076 16       		.uleb128 0x16
 946 0077 00       		.byte	0
 947 0078 03       		.uleb128 0x3
 948 0079 0E       		.uleb128 0xe
 949 007a 3A       		.uleb128 0x3a
 950 007b 0B       		.uleb128 0xb
 951 007c 3B       		.uleb128 0x3b
 952 007d 05       		.uleb128 0x5
 953 007e 49       		.uleb128 0x49
 954 007f 13       		.uleb128 0x13
 955 0080 00       		.byte	0
 956 0081 00       		.byte	0
 957 0082 0B       		.uleb128 0xb
 958 0083 26       		.uleb128 0x26
 959 0084 00       		.byte	0
 960 0085 49       		.uleb128 0x49
 961 0086 13       		.uleb128 0x13
 962 0087 00       		.byte	0
 963 0088 00       		.byte	0
 964 0089 0C       		.uleb128 0xc
 965 008a 01       		.uleb128 0x1
 966 008b 01       		.byte	0x1
 967 008c 49       		.uleb128 0x49
 968 008d 13       		.uleb128 0x13
 969 008e 01       		.uleb128 0x1
ARM GAS  /tmp/ccwfquuN.s 			page 18


 970 008f 13       		.uleb128 0x13
 971 0090 00       		.byte	0
 972 0091 00       		.byte	0
 973 0092 0D       		.uleb128 0xd
 974 0093 21       		.uleb128 0x21
 975 0094 00       		.byte	0
 976 0095 49       		.uleb128 0x49
 977 0096 13       		.uleb128 0x13
 978 0097 2F       		.uleb128 0x2f
 979 0098 0B       		.uleb128 0xb
 980 0099 00       		.byte	0
 981 009a 00       		.byte	0
 982 009b 0E       		.uleb128 0xe
 983 009c 0D       		.uleb128 0xd
 984 009d 00       		.byte	0
 985 009e 03       		.uleb128 0x3
 986 009f 08       		.uleb128 0x8
 987 00a0 3A       		.uleb128 0x3a
 988 00a1 0B       		.uleb128 0xb
 989 00a2 3B       		.uleb128 0x3b
 990 00a3 05       		.uleb128 0x5
 991 00a4 49       		.uleb128 0x49
 992 00a5 13       		.uleb128 0x13
 993 00a6 38       		.uleb128 0x38
 994 00a7 0B       		.uleb128 0xb
 995 00a8 00       		.byte	0
 996 00a9 00       		.byte	0
 997 00aa 0F       		.uleb128 0xf
 998 00ab 2E       		.uleb128 0x2e
 999 00ac 00       		.byte	0
 1000 00ad 03       		.uleb128 0x3
 1001 00ae 0E       		.uleb128 0xe
 1002 00af 3A       		.uleb128 0x3a
 1003 00b0 0B       		.uleb128 0xb
 1004 00b1 3B       		.uleb128 0x3b
 1005 00b2 0B       		.uleb128 0xb
 1006 00b3 27       		.uleb128 0x27
 1007 00b4 19       		.uleb128 0x19
 1008 00b5 20       		.uleb128 0x20
 1009 00b6 0B       		.uleb128 0xb
 1010 00b7 00       		.byte	0
 1011 00b8 00       		.byte	0
 1012 00b9 10       		.uleb128 0x10
 1013 00ba 2E       		.uleb128 0x2e
 1014 00bb 01       		.byte	0x1
 1015 00bc 3F       		.uleb128 0x3f
 1016 00bd 19       		.uleb128 0x19
 1017 00be 03       		.uleb128 0x3
 1018 00bf 0E       		.uleb128 0xe
 1019 00c0 3A       		.uleb128 0x3a
 1020 00c1 0B       		.uleb128 0xb
 1021 00c2 3B       		.uleb128 0x3b
 1022 00c3 0B       		.uleb128 0xb
 1023 00c4 27       		.uleb128 0x27
 1024 00c5 19       		.uleb128 0x19
 1025 00c6 11       		.uleb128 0x11
 1026 00c7 01       		.uleb128 0x1
ARM GAS  /tmp/ccwfquuN.s 			page 19


 1027 00c8 12       		.uleb128 0x12
 1028 00c9 06       		.uleb128 0x6
 1029 00ca 40       		.uleb128 0x40
 1030 00cb 18       		.uleb128 0x18
 1031 00cc 9742     		.uleb128 0x2117
 1032 00ce 19       		.uleb128 0x19
 1033 00cf 01       		.uleb128 0x1
 1034 00d0 13       		.uleb128 0x13
 1035 00d1 00       		.byte	0
 1036 00d2 00       		.byte	0
 1037 00d3 11       		.uleb128 0x11
 1038 00d4 1D       		.uleb128 0x1d
 1039 00d5 00       		.byte	0
 1040 00d6 31       		.uleb128 0x31
 1041 00d7 13       		.uleb128 0x13
 1042 00d8 52       		.uleb128 0x52
 1043 00d9 01       		.uleb128 0x1
 1044 00da 55       		.uleb128 0x55
 1045 00db 17       		.uleb128 0x17
 1046 00dc 58       		.uleb128 0x58
 1047 00dd 0B       		.uleb128 0xb
 1048 00de 59       		.uleb128 0x59
 1049 00df 0B       		.uleb128 0xb
 1050 00e0 00       		.byte	0
 1051 00e1 00       		.byte	0
 1052 00e2 12       		.uleb128 0x12
 1053 00e3 2E       		.uleb128 0x2e
 1054 00e4 00       		.byte	0
 1055 00e5 3F       		.uleb128 0x3f
 1056 00e6 19       		.uleb128 0x19
 1057 00e7 03       		.uleb128 0x3
 1058 00e8 0E       		.uleb128 0xe
 1059 00e9 3A       		.uleb128 0x3a
 1060 00ea 0B       		.uleb128 0xb
 1061 00eb 3B       		.uleb128 0x3b
 1062 00ec 0B       		.uleb128 0xb
 1063 00ed 27       		.uleb128 0x27
 1064 00ee 19       		.uleb128 0x19
 1065 00ef 11       		.uleb128 0x11
 1066 00f0 01       		.uleb128 0x1
 1067 00f1 12       		.uleb128 0x12
 1068 00f2 06       		.uleb128 0x6
 1069 00f3 40       		.uleb128 0x40
 1070 00f4 18       		.uleb128 0x18
 1071 00f5 9742     		.uleb128 0x2117
 1072 00f7 19       		.uleb128 0x19
 1073 00f8 00       		.byte	0
 1074 00f9 00       		.byte	0
 1075 00fa 13       		.uleb128 0x13
 1076 00fb 34       		.uleb128 0x34
 1077 00fc 00       		.byte	0
 1078 00fd 03       		.uleb128 0x3
 1079 00fe 0E       		.uleb128 0xe
 1080 00ff 3A       		.uleb128 0x3a
 1081 0100 0B       		.uleb128 0xb
 1082 0101 3B       		.uleb128 0x3b
 1083 0102 05       		.uleb128 0x5
ARM GAS  /tmp/ccwfquuN.s 			page 20


 1084 0103 49       		.uleb128 0x49
 1085 0104 13       		.uleb128 0x13
 1086 0105 3F       		.uleb128 0x3f
 1087 0106 19       		.uleb128 0x19
 1088 0107 3C       		.uleb128 0x3c
 1089 0108 19       		.uleb128 0x19
 1090 0109 00       		.byte	0
 1091 010a 00       		.byte	0
 1092 010b 00       		.byte	0
 1093              		.section	.debug_aranges,"",%progbits
 1094 0000 24000000 		.4byte	0x24
 1095 0004 0200     		.2byte	0x2
 1096 0006 00000000 		.4byte	.Ldebug_info0
 1097 000a 04       		.byte	0x4
 1098 000b 00       		.byte	0
 1099 000c 0000     		.2byte	0
 1100 000e 0000     		.2byte	0
 1101 0010 00000000 		.4byte	.LFB119
 1102 0014 98000000 		.4byte	.LFE119-.LFB119
 1103 0018 00000000 		.4byte	.LFB120
 1104 001c C0000000 		.4byte	.LFE120-.LFB120
 1105 0020 00000000 		.4byte	0
 1106 0024 00000000 		.4byte	0
 1107              		.section	.debug_ranges,"",%progbits
 1108              	.Ldebug_ranges0:
 1109 0000 22000000 		.4byte	.LBB4
 1110 0004 24000000 		.4byte	.LBE4
 1111 0008 56000000 		.4byte	.LBB7
 1112 000c 98000000 		.4byte	.LBE7
 1113 0010 00000000 		.4byte	0
 1114 0014 00000000 		.4byte	0
 1115 0018 00000000 		.4byte	.LFB119
 1116 001c 98000000 		.4byte	.LFE119
 1117 0020 00000000 		.4byte	.LFB120
 1118 0024 C0000000 		.4byte	.LFE120
 1119 0028 00000000 		.4byte	0
 1120 002c 00000000 		.4byte	0
 1121              		.section	.debug_line,"",%progbits
 1122              	.Ldebug_line0:
 1123 0000 A7010000 		.section	.debug_str,"MS",%progbits,1
 1123      02000E01 
 1123      00000201 
 1123      FB0E0D00 
 1123      01010101 
 1124              	.LASF56:
 1125 0000 41484231 		.ascii	"AHB1LPENR\000"
 1125      4C50454E 
 1125      5200
 1126              	.LASF46:
 1127 000a 41504231 		.ascii	"APB1RSTR\000"
 1127      52535452 
 1127      00
 1128              	.LASF70:
 1129 0013 474E5520 		.ascii	"GNU C 4.9.3 20150529 (prerelease) -mcpu=cortex-m4 -"
 1129      4320342E 
 1129      392E3320 
 1129      32303135 
ARM GAS  /tmp/ccwfquuN.s 			page 21


 1129      30353239 
 1130 0046 6D6E6F2D 		.ascii	"mno-thumb-interwork -mthumb -ggdb -O2 -fomit-frame-"
 1130      7468756D 
 1130      622D696E 
 1130      74657277 
 1130      6F726B20 
 1131 0079 706F696E 		.ascii	"pointer -falign-functions=16 -ffunction-sections -f"
 1131      74657220 
 1131      2D66616C 
 1131      69676E2D 
 1131      66756E63 
 1132 00ac 64617461 		.ascii	"data-sections -fno-common\000"
 1132      2D736563 
 1132      74696F6E 
 1132      73202D66 
 1132      6E6F2D63 
 1133              	.LASF50:
 1134 00c6 41484232 		.ascii	"AHB2ENR\000"
 1134      454E5200 
 1135              	.LASF19:
 1136 00ce 44454D43 		.ascii	"DEMCR\000"
 1136      5200
 1137              	.LASF3:
 1138 00d4 73686F72 		.ascii	"short int\000"
 1138      7420696E 
 1138      7400
 1139              	.LASF15:
 1140 00de 73697A65 		.ascii	"sizetype\000"
 1140      74797065 
 1140      00
 1141              	.LASF63:
 1142 00e7 42444352 		.ascii	"BDCR\000"
 1142      00
 1143              	.LASF28:
 1144 00ec 50435352 		.ascii	"PCSR\000"
 1144      00
 1145              	.LASF27:
 1146 00f1 464F4C44 		.ascii	"FOLDCNT\000"
 1146      434E5400 
 1147              	.LASF66:
 1148 00f9 504C4C49 		.ascii	"PLLI2SCFGR\000"
 1148      32534346 
 1148      475200
 1149              	.LASF39:
 1150 0104 5057525F 		.ascii	"PWR_TypeDef\000"
 1150      54797065 
 1150      44656600 
 1151              	.LASF72:
 1152 0110 2F686F6D 		.ascii	"/home/namv1994/CFSD19/Christian STM32 code/STM32F4/"
 1152      652F6E61 
 1152      6D763139 
 1152      39342F43 
 1152      46534431 
 1153 0143 53544D33 		.ascii	"STM32F4/embedded/ChibiOS/ChibiOS_2.6.5/testhal/STM3"
 1153      3246342F 
 1153      656D6265 
 1153      64646564 
ARM GAS  /tmp/ccwfquuN.s 			page 22


 1153      2F436869 
 1154 0176 32463478 		.ascii	"2F4xx/USB_CDC\000"
 1154      782F5553 
 1154      425F4344 
 1154      4300
 1155              	.LASF7:
 1156 0184 5F5F7569 		.ascii	"__uint32_t\000"
 1156      6E743332 
 1156      5F7400
 1157              	.LASF49:
 1158 018f 41484231 		.ascii	"AHB1ENR\000"
 1158      454E5200 
 1159              	.LASF65:
 1160 0197 53534347 		.ascii	"SSCGR\000"
 1160      5200
 1161              	.LASF21:
 1162 019d 4354524C 		.ascii	"CTRL\000"
 1162      00
 1163              	.LASF42:
 1164 01a2 41484231 		.ascii	"AHB1RSTR\000"
 1164      52535452 
 1164      00
 1165              	.LASF41:
 1166 01ab 43464752 		.ascii	"CFGR\000"
 1166      00
 1167              	.LASF23:
 1168 01b0 43504943 		.ascii	"CPICNT\000"
 1168      4E5400
 1169              	.LASF58:
 1170 01b7 41484233 		.ascii	"AHB3LPENR\000"
 1170      4C50454E 
 1170      5200
 1171              	.LASF53:
 1172 01c1 41504231 		.ascii	"APB1ENR\000"
 1172      454E5200 
 1173              	.LASF17:
 1174 01c9 44435253 		.ascii	"DCRSR\000"
 1174      5200
 1175              	.LASF73:
 1176 01cf 68616C5F 		.ascii	"hal_lld_backup_domain_init\000"
 1176      6C6C645F 
 1176      6261636B 
 1176      75705F64 
 1176      6F6D6169 
 1177              	.LASF18:
 1178 01ea 44435244 		.ascii	"DCRDR\000"
 1178      5200
 1179              	.LASF68:
 1180 01f0 44434B43 		.ascii	"DCKCFGR\000"
 1180      46475200 
 1181              	.LASF14:
 1182 01f8 494F5245 		.ascii	"IOREG32\000"
 1182      47333200 
 1183              	.LASF35:
 1184 0200 4F50544B 		.ascii	"OPTKEYR\000"
 1184      45595200 
 1185              	.LASF9:
ARM GAS  /tmp/ccwfquuN.s 			page 23


 1186 0208 6C6F6E67 		.ascii	"long long int\000"
 1186      206C6F6E 
 1186      6720696E 
 1186      7400
 1187              	.LASF22:
 1188 0216 43594343 		.ascii	"CYCCNT\000"
 1188      4E5400
 1189              	.LASF32:
 1190 021d 43414C49 		.ascii	"CALIB\000"
 1190      4200
 1191              	.LASF16:
 1192 0223 44484353 		.ascii	"DHCSR\000"
 1192      5200
 1193              	.LASF5:
 1194 0229 6C6F6E67 		.ascii	"long int\000"
 1194      20696E74 
 1194      00
 1195              	.LASF69:
 1196 0232 5243435F 		.ascii	"RCC_TypeDef\000"
 1196      54797065 
 1196      44656600 
 1197              	.LASF47:
 1198 023e 41504232 		.ascii	"APB2RSTR\000"
 1198      52535452 
 1198      00
 1199              	.LASF75:
 1200 0247 73746D33 		.ascii	"stm32_clock_init\000"
 1200      325F636C 
 1200      6F636B5F 
 1200      696E6974 
 1200      00
 1201              	.LASF37:
 1202 0258 4F505443 		.ascii	"OPTCR1\000"
 1202      523100
 1203              	.LASF51:
 1204 025f 41484233 		.ascii	"AHB3ENR\000"
 1204      454E5200 
 1205              	.LASF34:
 1206 0267 4B455952 		.ascii	"KEYR\000"
 1206      00
 1207              	.LASF24:
 1208 026c 45584343 		.ascii	"EXCCNT\000"
 1208      4E5400
 1209              	.LASF2:
 1210 0273 756E7369 		.ascii	"unsigned char\000"
 1210      676E6564 
 1210      20636861 
 1210      7200
 1211              	.LASF54:
 1212 0281 41504232 		.ascii	"APB2ENR\000"
 1212      454E5200 
 1213              	.LASF1:
 1214 0289 7369676E 		.ascii	"signed char\000"
 1214      65642063 
 1214      68617200 
 1215              	.LASF10:
 1216 0295 6C6F6E67 		.ascii	"long long unsigned int\000"
ARM GAS  /tmp/ccwfquuN.s 			page 24


 1216      206C6F6E 
 1216      6720756E 
 1216      7369676E 
 1216      65642069 
 1217              	.LASF12:
 1218 02ac 75696E74 		.ascii	"uint32_t\000"
 1218      33325F74 
 1218      00
 1219              	.LASF0:
 1220 02b5 756E7369 		.ascii	"unsigned int\000"
 1220      676E6564 
 1220      20696E74 
 1220      00
 1221              	.LASF43:
 1222 02c2 41484232 		.ascii	"AHB2RSTR\000"
 1222      52535452 
 1222      00
 1223              	.LASF71:
 1224 02cb 2E2E2F2E 		.ascii	"../../../os/hal/platforms/STM32F4xx/hal_lld.c\000"
 1224      2E2F2E2E 
 1224      2F6F732F 
 1224      68616C2F 
 1224      706C6174 
 1225              	.LASF8:
 1226 02f9 6C6F6E67 		.ascii	"long unsigned int\000"
 1226      20756E73 
 1226      69676E65 
 1226      6420696E 
 1226      7400
 1227              	.LASF74:
 1228 030b 68616C5F 		.ascii	"hal_lld_init\000"
 1228      6C6C645F 
 1228      696E6974 
 1228      00
 1229              	.LASF40:
 1230 0318 504C4C43 		.ascii	"PLLCFGR\000"
 1230      46475200 
 1231              	.LASF33:
 1232 0320 53797354 		.ascii	"SysTick_Type\000"
 1232      69636B5F 
 1232      54797065 
 1232      00
 1233              	.LASF4:
 1234 032d 73686F72 		.ascii	"short unsigned int\000"
 1234      7420756E 
 1234      7369676E 
 1234      65642069 
 1234      6E7400
 1235              	.LASF60:
 1236 0340 41504231 		.ascii	"APB1LPENR\000"
 1236      4C50454E 
 1236      5200
 1237              	.LASF30:
 1238 034a 63686172 		.ascii	"char\000"
 1238      00
 1239              	.LASF20:
 1240 034f 434D785F 		.ascii	"CMx_SCS\000"
ARM GAS  /tmp/ccwfquuN.s 			page 25


 1240      53435300 
 1241              	.LASF11:
 1242 0357 696E7433 		.ascii	"int32_t\000"
 1242      325F7400 
 1243              	.LASF13:
 1244 035f 5F426F6F 		.ascii	"_Bool\000"
 1244      6C00
 1245              	.LASF57:
 1246 0365 41484232 		.ascii	"AHB2LPENR\000"
 1246      4C50454E 
 1246      5200
 1247              	.LASF29:
 1248 036f 434D785F 		.ascii	"CMx_DWT\000"
 1248      44575400 
 1249              	.LASF45:
 1250 0377 52455345 		.ascii	"RESERVED0\000"
 1250      52564544 
 1250      3000
 1251              	.LASF48:
 1252 0381 52455345 		.ascii	"RESERVED1\000"
 1252      52564544 
 1252      3100
 1253              	.LASF52:
 1254 038b 52455345 		.ascii	"RESERVED2\000"
 1254      52564544 
 1254      3200
 1255              	.LASF55:
 1256 0395 52455345 		.ascii	"RESERVED3\000"
 1256      52564544 
 1256      3300
 1257              	.LASF59:
 1258 039f 52455345 		.ascii	"RESERVED4\000"
 1258      52564544 
 1258      3400
 1259              	.LASF62:
 1260 03a9 52455345 		.ascii	"RESERVED5\000"
 1260      52564544 
 1260      3500
 1261              	.LASF64:
 1262 03b3 52455345 		.ascii	"RESERVED6\000"
 1262      52564544 
 1262      3600
 1263              	.LASF25:
 1264 03bd 534C4545 		.ascii	"SLEEPCNT\000"
 1264      50434E54 
 1264      00
 1265              	.LASF6:
 1266 03c6 5F5F696E 		.ascii	"__int32_t\000"
 1266      7433325F 
 1266      7400
 1267              	.LASF26:
 1268 03d0 4C535543 		.ascii	"LSUCNT\000"
 1268      4E5400
 1269              	.LASF31:
 1270 03d7 4C4F4144 		.ascii	"LOAD\000"
 1270      00
 1271              	.LASF44:
ARM GAS  /tmp/ccwfquuN.s 			page 26


 1272 03dc 41484233 		.ascii	"AHB3RSTR\000"
 1272      52535452 
 1272      00
 1273              	.LASF38:
 1274 03e5 464C4153 		.ascii	"FLASH_TypeDef\000"
 1274      485F5479 
 1274      70654465 
 1274      6600
 1275              	.LASF76:
 1276 03f3 49544D5F 		.ascii	"ITM_RxBuffer\000"
 1276      52784275 
 1276      66666572 
 1276      00
 1277              	.LASF67:
 1278 0400 504C4C53 		.ascii	"PLLSAICFGR\000"
 1278      41494346 
 1278      475200
 1279              	.LASF61:
 1280 040b 41504232 		.ascii	"APB2LPENR\000"
 1280      4C50454E 
 1280      5200
 1281              	.LASF36:
 1282 0415 4F505443 		.ascii	"OPTCR\000"
 1282      5200
 1283              		.ident	"GCC: (15:4.9.3+svn231177-1) 4.9.3 20150529 (prerelease)"
ARM GAS  /tmp/ccwfquuN.s 			page 27


DEFINED SYMBOLS
                            *ABS*:0000000000000000 hal_lld.c
     /tmp/ccwfquuN.s:19     .text.hal_lld_init:0000000000000000 $t
     /tmp/ccwfquuN.s:25     .text.hal_lld_init:0000000000000000 hal_lld_init
     /tmp/ccwfquuN.s:123    .text.hal_lld_init:0000000000000080 $d
     /tmp/ccwfquuN.s:135    .text.stm32_clock_init:0000000000000000 $t
     /tmp/ccwfquuN.s:141    .text.stm32_clock_init:0000000000000000 stm32_clock_init
     /tmp/ccwfquuN.s:263    .text.stm32_clock_init:00000000000000ac $d
                     .debug_frame:0000000000000010 $d

NO UNDEFINED SYMBOLS
