ARM GAS  /tmp/ccwfquuN.s 			page 1


   1              		.syntax unified
   2              		.cpu cortex-m4
   3              		.fpu softvfp
   4              		.eabi_attribute 20, 1
   5              		.eabi_attribute 21, 1
   6              		.eabi_attribute 23, 3
   7              		.eabi_attribute 24, 1
   8              		.eabi_attribute 25, 1
   9              		.eabi_attribute 26, 1
  10              		.eabi_attribute 30, 2
  11              		.eabi_attribute 34, 1
  12              		.eabi_attribute 18, 4
  13              		.thumb
  14              		.file	"hal_lld.c"
  15              		.text
  16              	.Ltext0:
  17              		.cfi_sections	.debug_frame
  18              		.section	.text.hal_lld_init,"ax",%progbits
  19              		.align	2
  20              		.p2align 4,,15
  21              		.global	hal_lld_init
  22              		.thumb
  23              		.thumb_func
  24              		.type	hal_lld_init, %function
  25              	hal_lld_init:
  26              	.LFB119:
  27              		.file 1 "../../../os/hal/platforms/STM32F4xx/hal_lld.c"
  28              		.loc 1 111 0
  29              		.cfi_startproc
  30              		@ args = 0, pretend = 0, frame = 0
  31              		@ frame_needed = 0, uses_anonymous_args = 0
  32              		.loc 1 115 0
  33 0000 1F4B     		ldr	r3, .L8
  34              		.loc 1 121 0
  35 0002 2049     		ldr	r1, .L8+4
  36              		.loc 1 115 0
  37 0004 1A69     		ldr	r2, [r3, #16]
  38 0006 4FF0FF30 		mov	r0, #-1
  39 000a 0022     		movs	r2, #0
  40              		.loc 1 111 0
  41 000c F0B5     		push	{r4, r5, r6, r7, lr}
  42              		.cfi_def_cfa_offset 20
  43              		.cfi_offset 4, -20
  44              		.cfi_offset 5, -16
  45              		.cfi_offset 6, -12
  46              		.cfi_offset 7, -8
  47              		.cfi_offset 14, -4
  48              		.loc 1 115 0
  49 000e 1861     		str	r0, [r3, #16]
  50 0010 1A61     		str	r2, [r3, #16]
  51              		.loc 1 116 0
  52 0012 5C69     		ldr	r4, [r3, #20]
  53 0014 5861     		str	r0, [r3, #20]
  54 0016 5A61     		str	r2, [r3, #20]
  55              		.loc 1 117 0
  56 0018 1C6A     		ldr	r4, [r3, #32]
  57              		.loc 1 128 0
ARM GAS  /tmp/ccwfquuN.s 			page 2


  58 001a 1B4F     		ldr	r7, .L8+8
  59              		.loc 1 121 0
  60 001c DFF874E0 		ldr	lr, .L8+20
  61              		.loc 1 129 0
  62 0020 1A4E     		ldr	r6, .L8+12
  63              	.LBB4:
  64              	.LBB5:
  65              		.loc 1 54 0
  66 0022 1B4D     		ldr	r5, .L8+16
  67              	.LBE5:
  68              	.LBE4:
  69              		.loc 1 117 0
  70 0024 64F08054 		orn	r4, r4, #268435456
  71 0028 1C62     		str	r4, [r3, #32]
  72 002a 1A62     		str	r2, [r3, #32]
  73              		.loc 1 123 0
  74 002c 0724     		movs	r4, #7
  75              		.loc 1 118 0
  76 002e D3F824C0 		ldr	ip, [r3, #36]
  77 0032 5862     		str	r0, [r3, #36]
  78 0034 5A62     		str	r2, [r3, #36]
  79              		.loc 1 121 0
  80 0036 C1F804E0 		str	lr, [r1, #4]
  81              		.loc 1 122 0
  82 003a 8A60     		str	r2, [r1, #8]
  83              		.loc 1 123 0
  84 003c 0C60     		str	r4, [r1]
  85              		.loc 1 128 0
  86 003e F968     		ldr	r1, [r7, #12]
  87 0040 41F08071 		orr	r1, r1, #16777216
  88 0044 F960     		str	r1, [r7, #12]
  89              		.loc 1 129 0
  90 0046 3168     		ldr	r1, [r6]
  91 0048 41F00101 		orr	r1, r1, #1
  92 004c 3160     		str	r1, [r6]
  93              		.loc 1 132 0
  94 004e 196C     		ldr	r1, [r3, #64]
  95 0050 41F08051 		orr	r1, r1, #268435456
  96 0054 1964     		str	r1, [r3, #64]
  97              	.LBB7:
  98              	.LBB6:
  99              		.loc 1 54 0
 100 0056 2968     		ldr	r1, [r5]
 101 0058 41F48071 		orr	r1, r1, #256
 102 005c 2960     		str	r1, [r5]
 103              		.loc 1 57 0
 104 005e 196F     		ldr	r1, [r3, #112]
 105 0060 01F44071 		and	r1, r1, #768
 106 0064 B1F5007F 		cmp	r1, #512
 107 0068 03D0     		beq	.L2
 108              		.loc 1 59 0
 109 006a 4FF48031 		mov	r1, #65536
 110 006e 1967     		str	r1, [r3, #112]
 111              		.loc 1 60 0
 112 0070 1A67     		str	r2, [r3, #112]
 113              	.L2:
 114              		.loc 1 94 0
ARM GAS  /tmp/ccwfquuN.s 			page 3


 115 0072 074A     		ldr	r2, .L8+16
 116 0074 5368     		ldr	r3, [r2, #4]
 117 0076 23F40073 		bic	r3, r3, #512
 118 007a 5360     		str	r3, [r2, #4]
 119 007c F0BD     		pop	{r4, r5, r6, r7, pc}
 120              	.L9:
 121 007e 00BF     		.align	2
 122              	.L8:
 123 0080 00380240 		.word	1073887232
 124 0084 10E000E0 		.word	-536813552
 125 0088 F0ED00E0 		.word	-536810000
 126 008c 001000E0 		.word	-536866816
 127 0090 00700040 		.word	1073770496
 128 0094 3F900200 		.word	167999
 129              	.LBE6:
 130              	.LBE7:
 131              		.cfi_endproc
 132              	.LFE119:
 133              		.size	hal_lld_init, .-hal_lld_init
 134              		.section	.text.stm32_clock_init,"ax",%progbits
 135              		.align	2
 136              		.p2align 4,,15
 137              		.global	stm32_clock_init
 138              		.thumb
 139              		.thumb_func
 140              		.type	stm32_clock_init, %function
 141              	stm32_clock_init:
 142              	.LFB120:
 143              		.loc 1 154 0
 144              		.cfi_startproc
 145              		@ args = 0, pretend = 0, frame = 0
 146              		@ frame_needed = 0, uses_anonymous_args = 0
 147              		@ link register save eliminated.
 148              		.loc 1 158 0
 149 0000 2A4A     		ldr	r2, .L31
 150              		.loc 1 162 0
 151 0002 2B4B     		ldr	r3, .L31+4
 152              		.loc 1 158 0
 153 0004 4FF08050 		mov	r0, #268435456
 154              		.loc 1 162 0
 155 0008 4FF44041 		mov	r1, #49152
 156              		.loc 1 158 0
 157 000c 1064     		str	r0, [r2, #64]
 158              		.loc 1 162 0
 159 000e 1960     		str	r1, [r3]
 160              		.loc 1 169 0
 161 0010 1368     		ldr	r3, [r2]
 162 0012 43F00103 		orr	r3, r3, #1
 163 0016 1360     		str	r3, [r2]
 164              	.L11:
 165              		.loc 1 170 0 discriminator 1
 166 0018 1368     		ldr	r3, [r2]
 167 001a 2449     		ldr	r1, .L31
 168 001c 9807     		lsls	r0, r3, #30
 169 001e FBD5     		bpl	.L11
 170              		.loc 1 172 0
 171 0020 0B68     		ldr	r3, [r1]
ARM GAS  /tmp/ccwfquuN.s 			page 4


 172              		.loc 1 173 0
 173 0022 0022     		movs	r2, #0
 174              		.loc 1 172 0
 175 0024 03F0F903 		and	r3, r3, #249
 176 0028 0B60     		str	r3, [r1]
 177              		.loc 1 174 0
 178 002a 0846     		mov	r0, r1
 179              		.loc 1 173 0
 180 002c 8A60     		str	r2, [r1, #8]
 181              	.L12:
 182              		.loc 1 174 0 discriminator 1
 183 002e 8268     		ldr	r2, [r0, #8]
 184 0030 1E4B     		ldr	r3, .L31
 185 0032 12F00C0F 		tst	r2, #12
 186 0036 FAD1     		bne	.L12
 187              		.loc 1 184 0
 188 0038 1A68     		ldr	r2, [r3]
 189 003a 42F48032 		orr	r2, r2, #65536
 190 003e 1A60     		str	r2, [r3]
 191              		.loc 1 186 0
 192 0040 1A46     		mov	r2, r3
 193              	.L13:
 194              		.loc 1 186 0 is_stmt 0 discriminator 1
 195 0042 1168     		ldr	r1, [r2]
 196 0044 194B     		ldr	r3, .L31
 197 0046 8903     		lsls	r1, r1, #14
 198 0048 FBD5     		bpl	.L13
 199              		.loc 1 192 0 is_stmt 1
 200 004a 5A6F     		ldr	r2, [r3, #116]
 201 004c 42F00102 		orr	r2, r2, #1
 202 0050 5A67     		str	r2, [r3, #116]
 203              	.L14:
 204              		.loc 1 193 0 discriminator 1
 205 0052 5A6F     		ldr	r2, [r3, #116]
 206 0054 1549     		ldr	r1, .L31
 207 0056 9007     		lsls	r0, r2, #30
 208 0058 FBD5     		bpl	.L14
 209              		.loc 1 199 0
 210 005a 164B     		ldr	r3, .L31+8
 211 005c 4B60     		str	r3, [r1, #4]
 212              		.loc 1 201 0
 213 005e 0B68     		ldr	r3, [r1]
 214              		.loc 1 205 0
 215 0060 134A     		ldr	r2, .L31+4
 216              		.loc 1 201 0
 217 0062 43F08073 		orr	r3, r3, #16777216
 218 0066 0B60     		str	r3, [r1]
 219              	.L15:
 220              		.loc 1 205 0 discriminator 1
 221 0068 5368     		ldr	r3, [r2, #4]
 222 006a 5904     		lsls	r1, r3, #17
 223 006c FCD5     		bpl	.L15
 224              		.loc 1 221 0 discriminator 1
 225 006e 0F49     		ldr	r1, .L31
 226              	.L25:
 227 0070 0A68     		ldr	r2, [r1]
 228 0072 0E4B     		ldr	r3, .L31
ARM GAS  /tmp/ccwfquuN.s 			page 5


 229 0074 9201     		lsls	r2, r2, #6
 230 0076 FBD5     		bpl	.L25
 231              		.loc 1 249 0
 232 0078 0F4A     		ldr	r2, .L31+12
 233              		.loc 1 236 0
 234 007a 1049     		ldr	r1, .L31+16
 235 007c 9960     		str	r1, [r3, #8]
 236              		.loc 1 249 0
 237 007e 40F20571 		movw	r1, #1797
 238 0082 1160     		str	r1, [r2]
 239              		.loc 1 255 0
 240 0084 9A68     		ldr	r2, [r3, #8]
 241 0086 42F00202 		orr	r2, r2, #2
 242 008a 9A60     		str	r2, [r3, #8]
 243              		.loc 1 256 0
 244 008c 1A46     		mov	r2, r3
 245              	.L17:
 246              		.loc 1 256 0 is_stmt 0 discriminator 1
 247 008e 9368     		ldr	r3, [r2, #8]
 248 0090 0649     		ldr	r1, .L31
 249 0092 03F00C03 		and	r3, r3, #12
 250 0096 082B     		cmp	r3, #8
 251 0098 F9D1     		bne	.L17
 252              		.loc 1 263 0 is_stmt 1
 253 009a 4B6C     		ldr	r3, [r1, #68]
 254 009c 43F48043 		orr	r3, r3, #16384
 255 00a0 4B64     		str	r3, [r1, #68]
 256 00a2 4B6E     		ldr	r3, [r1, #100]
 257 00a4 43F48043 		orr	r3, r3, #16384
 258 00a8 4B66     		str	r3, [r1, #100]
 259 00aa 7047     		bx	lr
 260              	.L32:
 261              		.align	2
 262              	.L31:
 263 00ac 00380240 		.word	1073887232
 264 00b0 00700040 		.word	1073770496
 265 00b4 0C544007 		.word	121656332
 266 00b8 003C0240 		.word	1073888256
 267 00bc 00940838 		.word	940086272
 268              		.cfi_endproc
 269              	.LFE120:
 270              		.size	stm32_clock_init, .-stm32_clock_init
 271              		.text
 272              	.Letext0:
 273              		.file 2 "/usr/include/newlib/machine/_default_types.h"
 274              		.file 3 "/usr/include/newlib/sys/_stdint.h"
 275              		.file 4 "../../../os/ports/common/ARMCMx/nvic.h"
 276              		.file 5 "../../../os/ports/common/ARMCMx/CMSIS/include/core_cm4.h"
 277              		.file 6 "../../../os/hal/platforms/STM32F4xx/stm32f4xx.h"