ARM GAS  /tmp/cc6xd45y.s 			page 1


   1              		.syntax unified
   2              		.cpu cortex-m4
   3              		.fpu softvfp
   4              		.eabi_attribute 20, 1
   5              		.eabi_attribute 21, 1
   6              		.eabi_attribute 23, 3
   7              		.eabi_attribute 24, 1
   8              		.eabi_attribute 25, 1
   9              		.eabi_attribute 26, 1
  10              		.eabi_attribute 30, 2
  11              		.eabi_attribute 34, 1
  12              		.eabi_attribute 18, 4
  13              		.thumb
  14              		.file	"usb.c"
  15              		.text
  16              	.Ltext0:
  17              		.cfi_sections	.debug_frame
  18              		.section	.text.usbInit,"ax",%progbits
  19              		.align	2
  20              		.p2align 4,,15
  21              		.global	usbInit
  22              		.thumb
  23              		.thumb_func
  24              		.type	usbInit, %function
  25              	usbInit:
  26              	.LFB120:
  27              		.file 1 "../../../os/hal/src/usb.c"
  28              		.loc 1 235 0
  29              		.cfi_startproc
  30              		@ args = 0, pretend = 0, frame = 0
  31              		@ frame_needed = 0, uses_anonymous_args = 0
  32              		@ link register save eliminated.
  33              		.loc 1 237 0
  34 0000 FFF7FEBF 		b	usb_lld_init
  35              	.LVL0:
  36              		.cfi_endproc
  37              	.LFE120:
  38              		.size	usbInit, .-usbInit
  39              		.section	.text.usbObjectInit,"ax",%progbits
  40              		.align	2
  41              		.p2align 4,,15
  42              		.global	usbObjectInit
  43              		.thumb
  44              		.thumb_func
  45              		.type	usbObjectInit, %function
  46              	usbObjectInit:
  47              	.LFB121:
  48              		.loc 1 247 0
  49              		.cfi_startproc
  50              		@ args = 0, pretend = 0, frame = 0
  51              		@ frame_needed = 0, uses_anonymous_args = 0
  52              		@ link register save eliminated.
  53              	.LVL1:
  54              		.loc 1 250 0
  55 0000 0123     		movs	r3, #1
  56              		.loc 1 247 0
  57 0002 30B4     		push	{r4, r5}
ARM GAS  /tmp/cc6xd45y.s 			page 2


  58              		.cfi_def_cfa_offset 8
  59              		.cfi_offset 4, -8
  60              		.cfi_offset 5, -4
  61              		.loc 1 251 0
  62 0004 0022     		movs	r2, #0
  63 0006 00F13405 		add	r5, r0, #52
  64              		.loc 1 250 0
  65 000a 0370     		strb	r3, [r0]
  66              		.loc 1 251 0
  67 000c 2946     		mov	r1, r5
  68 000e 4260     		str	r2, [r0, #4]
  69              	.LVL2:
  70 0010 00F12003 		add	r3, r0, #32
  71              	.LVL3:
  72              	.L3:
  73              		.loc 1 253 0 discriminator 3
  74 0014 43F8042F 		str	r2, [r3, #4]!
  75              		.loc 1 252 0 discriminator 3
  76 0018 AB42     		cmp	r3, r5
  77              		.loc 1 253 0 discriminator 3
  78 001a 4FF00004 		mov	r4, #0
  79              		.loc 1 254 0 discriminator 3
  80 001e 41F8042F 		str	r2, [r1, #4]!
  81              		.loc 1 252 0 discriminator 3
  82 0022 F7D1     		bne	.L3
  83              		.loc 1 256 0
  84 0024 0481     		strh	r4, [r0, #8]	@ movhi
  85              		.loc 1 257 0
  86 0026 4481     		strh	r4, [r0, #10]	@ movhi
  87              		.loc 1 258 0
  88 0028 30BC     		pop	{r4, r5}
  89              		.cfi_restore 5
  90              		.cfi_restore 4
  91              		.cfi_def_cfa_offset 0
  92 002a 7047     		bx	lr
  93              		.cfi_endproc
  94              	.LFE121:
  95              		.size	usbObjectInit, .-usbObjectInit
  96              		.section	.text.usbStart,"ax",%progbits
  97              		.align	2
  98              		.p2align 4,,15
  99              		.global	usbStart
 100              		.thumb
 101              		.thumb_func
 102              		.type	usbStart, %function
 103              	usbStart:
 104              	.LFB122:
 105              		.loc 1 268 0
 106              		.cfi_startproc
 107              		@ args = 0, pretend = 0, frame = 0
 108              		@ frame_needed = 0, uses_anonymous_args = 0
 109              	.LVL4:
 110 0000 70B5     		push	{r4, r5, r6, lr}
 111              		.cfi_def_cfa_offset 16
 112              		.cfi_offset 4, -16
 113              		.cfi_offset 5, -12
 114              		.cfi_offset 6, -8
ARM GAS  /tmp/cc6xd45y.s 			page 3


 115              		.cfi_offset 14, -4
 116              		.loc 1 268 0
 117 0002 0E46     		mov	r6, r1
 118              		.loc 1 271 0
 119 0004 0446     		mov	r4, r0
 120 0006 F8B1     		cbz	r0, .L8
 121              		.loc 1 271 0 is_stmt 0 discriminator 2
 122 0008 F1B1     		cbz	r1, .L8
 123              	.LVL5:
 124              	.L9:
 125              	.LBB30:
 126              		.loc 1 273 0 is_stmt 1
 127 000a 2023     		movs	r3, #32
 128              	@ 273 "../../../os/hal/src/usb.c" 1
 129 000c 83F31188 		msr     BASEPRI, r3
 130              	@ 0 "" 2
 131              		.thumb
 132              	.LBE30:
 133 0010 FFF7FEFF 		bl	dbg_check_lock
 134              	.LVL6:
 135              		.loc 1 274 0
 136 0014 2378     		ldrb	r3, [r4]	@ zero_extendqisi2
 137 0016 013B     		subs	r3, r3, #1
 138 0018 012B     		cmp	r3, #1
 139 001a 02D9     		bls	.L10
 140              		.loc 1 274 0 is_stmt 0 discriminator 1
 141 001c 0C48     		ldr	r0, .L15
 142 001e FFF7FEFF 		bl	chDbgPanic
 143              	.LVL7:
 144              	.L10:
 145              		.loc 1 278 0 is_stmt 1
 146 0022 0025     		movs	r5, #0
 147              		.loc 1 279 0
 148 0024 2046     		mov	r0, r4
 149              		.loc 1 276 0
 150 0026 6660     		str	r6, [r4, #4]
 151              	.LVL8:
 152              		.loc 1 278 0
 153 0028 E560     		str	r5, [r4, #12]
 154              	.LVL9:
 155 002a 2561     		str	r5, [r4, #16]
 156              	.LVL10:
 157 002c 6561     		str	r5, [r4, #20]
 158              	.LVL11:
 159 002e A561     		str	r5, [r4, #24]
 160              	.LVL12:
 161 0030 E561     		str	r5, [r4, #28]
 162              	.LVL13:
 163 0032 2562     		str	r5, [r4, #32]
 164              	.LVL14:
 165              		.loc 1 279 0
 166 0034 FFF7FEFF 		bl	usb_lld_start
 167              	.LVL15:
 168              		.loc 1 280 0
 169 0038 0223     		movs	r3, #2
 170 003a 2370     		strb	r3, [r4]
 171              		.loc 1 281 0
ARM GAS  /tmp/cc6xd45y.s 			page 4


 172 003c FFF7FEFF 		bl	dbg_check_unlock
 173              	.LVL16:
 174              	.LBB31:
 175 0040 2B46     		mov	r3, r5
 176              	@ 281 "../../../os/hal/src/usb.c" 1
 177 0042 83F31188 		msr     BASEPRI, r3
 178              	@ 0 "" 2
 179              		.thumb
 180 0046 70BD     		pop	{r4, r5, r6, pc}
 181              	.LVL17:
 182              	.L8:
 183              	.LBE31:
 184              		.loc 1 271 0 discriminator 3
 185 0048 0248     		ldr	r0, .L15+4
 186              	.LVL18:
 187 004a FFF7FEFF 		bl	chDbgPanic
 188              	.LVL19:
 189 004e DCE7     		b	.L9
 190              	.L16:
 191              		.align	2
 192              	.L15:
 193 0050 10000000 		.word	.LC1
 194 0054 00000000 		.word	.LC0
 195              		.cfi_endproc
 196              	.LFE122:
 197              		.size	usbStart, .-usbStart
 198              		.section	.text.usbStop,"ax",%progbits
 199              		.align	2
 200              		.p2align 4,,15
 201              		.global	usbStop
 202              		.thumb
 203              		.thumb_func
 204              		.type	usbStop, %function
 205              	usbStop:
 206              	.LFB123:
 207              		.loc 1 291 0
 208              		.cfi_startproc
 209              		@ args = 0, pretend = 0, frame = 0
 210              		@ frame_needed = 0, uses_anonymous_args = 0
 211              	.LVL20:
 212 0000 10B5     		push	{r4, lr}
 213              		.cfi_def_cfa_offset 8
 214              		.cfi_offset 4, -8
 215              		.cfi_offset 14, -4
 216              		.loc 1 293 0
 217 0002 0446     		mov	r4, r0
 218 0004 B0B1     		cbz	r0, .L21
 219              	.LVL21:
 220              	.L18:
 221              	.LBB32:
 222              		.loc 1 295 0
 223 0006 2023     		movs	r3, #32
 224              	@ 295 "../../../os/hal/src/usb.c" 1
 225 0008 83F31188 		msr     BASEPRI, r3
 226              	@ 0 "" 2
 227              		.thumb
 228              	.LBE32:
ARM GAS  /tmp/cc6xd45y.s 			page 5


 229 000c FFF7FEFF 		bl	dbg_check_lock
 230              	.LVL22:
 231              		.loc 1 296 0
 232 0010 2378     		ldrb	r3, [r4]	@ zero_extendqisi2
 233 0012 013B     		subs	r3, r3, #1
 234 0014 032B     		cmp	r3, #3
 235 0016 02D9     		bls	.L19
 236              		.loc 1 296 0 is_stmt 0 discriminator 1
 237 0018 0848     		ldr	r0, .L22
 238 001a FFF7FEFF 		bl	chDbgPanic
 239              	.LVL23:
 240              	.L19:
 241              		.loc 1 299 0 is_stmt 1
 242 001e 2046     		mov	r0, r4
 243 0020 FFF7FEFF 		bl	usb_lld_stop
 244              	.LVL24:
 245              		.loc 1 300 0
 246 0024 0123     		movs	r3, #1
 247 0026 2370     		strb	r3, [r4]
 248              		.loc 1 301 0
 249 0028 FFF7FEFF 		bl	dbg_check_unlock
 250              	.LVL25:
 251              	.LBB33:
 252 002c 0023     		movs	r3, #0
 253              	@ 301 "../../../os/hal/src/usb.c" 1
 254 002e 83F31188 		msr     BASEPRI, r3
 255              	@ 0 "" 2
 256              		.thumb
 257 0032 10BD     		pop	{r4, pc}
 258              	.LVL26:
 259              	.L21:
 260              	.LBE33:
 261              		.loc 1 293 0 discriminator 1
 262 0034 0248     		ldr	r0, .L22+4
 263              	.LVL27:
 264 0036 FFF7FEFF 		bl	chDbgPanic
 265              	.LVL28:
 266 003a E4E7     		b	.L18
 267              	.L23:
 268              		.align	2
 269              	.L22:
 270 003c 2C000000 		.word	.LC3
 271 0040 20000000 		.word	.LC2
 272              		.cfi_endproc
 273              	.LFE123:
 274              		.size	usbStop, .-usbStop
 275              		.section	.text.usbInitEndpointI,"ax",%progbits
 276              		.align	2
 277              		.p2align 4,,15
 278              		.global	usbInitEndpointI
 279              		.thumb
 280              		.thumb_func
 281              		.type	usbInitEndpointI, %function
 282              	usbInitEndpointI:
 283              	.LFB124:
 284              		.loc 1 318 0
 285              		.cfi_startproc
ARM GAS  /tmp/cc6xd45y.s 			page 6


 286              		@ args = 0, pretend = 0, frame = 0
 287              		@ frame_needed = 0, uses_anonymous_args = 0
 288              	.LVL29:
 289 0000 F8B5     		push	{r3, r4, r5, r6, r7, lr}
 290              		.cfi_def_cfa_offset 24
 291              		.cfi_offset 3, -24
 292              		.cfi_offset 4, -20
 293              		.cfi_offset 5, -16
 294              		.cfi_offset 6, -12
 295              		.cfi_offset 7, -8
 296              		.cfi_offset 14, -4
 297              		.loc 1 318 0
 298 0002 0446     		mov	r4, r0
 299 0004 0E46     		mov	r6, r1
 300 0006 1546     		mov	r5, r2
 301              		.loc 1 320 0
 302 0008 FFF7FEFF 		bl	chDbgCheckClassI
 303              	.LVL30:
 304              		.loc 1 321 0
 305 000c 04B3     		cbz	r4, .L25
 306              		.loc 1 321 0 is_stmt 0 discriminator 2
 307 000e FDB1     		cbz	r5, .L25
 308              	.L26:
 309              		.loc 1 322 0 is_stmt 1
 310 0010 2378     		ldrb	r3, [r4]	@ zero_extendqisi2
 311 0012 042B     		cmp	r3, #4
 312 0014 02D0     		beq	.L27
 313              		.loc 1 322 0 is_stmt 0 discriminator 1
 314 0016 1048     		ldr	r0, .L47
 315 0018 FFF7FEFF 		bl	chDbgPanic
 316              	.LVL31:
 317              	.L27:
 318 001c 04EB8607 		add	r7, r4, r6, lsl #2
 319              		.loc 1 324 0 is_stmt 1
 320 0020 FB68     		ldr	r3, [r7, #12]
 321 0022 13B1     		cbz	r3, .L28
 322              		.loc 1 324 0 is_stmt 0 discriminator 1
 323 0024 0D48     		ldr	r0, .L47+4
 324 0026 FFF7FEFF 		bl	chDbgPanic
 325              	.LVL32:
 326              	.L28:
 327              		.loc 1 328 0 is_stmt 1
 328 002a 6869     		ldr	r0, [r5, #20]
 329 002c 18B1     		cbz	r0, .L29
 330              		.loc 1 329 0
 331 002e 0021     		movs	r1, #0
 332 0030 1422     		movs	r2, #20
 333 0032 FFF7FEFF 		bl	memset
 334              	.LVL33:
 335              	.L29:
 336              		.loc 1 330 0
 337 0036 A869     		ldr	r0, [r5, #24]
 338 0038 18B1     		cbz	r0, .L30
 339              		.loc 1 331 0
 340 003a 0021     		movs	r1, #0
 341 003c 1022     		movs	r2, #16
 342 003e FFF7FEFF 		bl	memset
ARM GAS  /tmp/cc6xd45y.s 			page 7


 343              	.LVL34:
 344              	.L30:
 345              		.loc 1 333 0
 346 0042 FD60     		str	r5, [r7, #12]
 347              		.loc 1 336 0
 348 0044 2046     		mov	r0, r4
 349 0046 3146     		mov	r1, r6
 350              		.loc 1 337 0
 351 0048 BDE8F840 		pop	{r3, r4, r5, r6, r7, lr}
 352              		.cfi_remember_state
 353              		.cfi_restore 14
 354              		.cfi_restore 7
 355              		.cfi_restore 6
 356              		.cfi_restore 5
 357              		.cfi_restore 4
 358              		.cfi_restore 3
 359              		.cfi_def_cfa_offset 0
 360              	.LVL35:
 361              		.loc 1 336 0
 362 004c FFF7FEBF 		b	usb_lld_init_endpoint
 363              	.LVL36:
 364              	.L25:
 365              		.cfi_restore_state
 366              		.loc 1 321 0 discriminator 3
 367 0050 0348     		ldr	r0, .L47+8
 368 0052 FFF7FEFF 		bl	chDbgPanic
 369              	.LVL37:
 370 0056 DBE7     		b	.L26
 371              	.L48:
 372              		.align	2
 373              	.L47:
 374 0058 54000000 		.word	.LC5
 375 005c 70000000 		.word	.LC6
 376 0060 3C000000 		.word	.LC4
 377              		.cfi_endproc
 378              	.LFE124:
 379              		.size	usbInitEndpointI, .-usbInitEndpointI
 380              		.section	.text.usbDisableEndpointsI,"ax",%progbits
 381              		.align	2
 382              		.p2align 4,,15
 383              		.global	usbDisableEndpointsI
 384              		.thumb
 385              		.thumb_func
 386              		.type	usbDisableEndpointsI, %function
 387              	usbDisableEndpointsI:
 388              	.LFB125:
 389              		.loc 1 350 0
 390              		.cfi_startproc
 391              		@ args = 0, pretend = 0, frame = 0
 392              		@ frame_needed = 0, uses_anonymous_args = 0
 393              	.LVL38:
 394 0000 10B5     		push	{r4, lr}
 395              		.cfi_def_cfa_offset 8
 396              		.cfi_offset 4, -8
 397              		.cfi_offset 14, -4
 398              		.loc 1 350 0
 399 0002 0446     		mov	r4, r0
ARM GAS  /tmp/cc6xd45y.s 			page 8


 400              		.loc 1 353 0
 401 0004 FFF7FEFF 		bl	chDbgCheckClassI
 402              	.LVL39:
 403              		.loc 1 354 0
 404 0008 C4B1     		cbz	r4, .L56
 405              	.L50:
 406              		.loc 1 355 0
 407 000a 2378     		ldrb	r3, [r4]	@ zero_extendqisi2
 408 000c 032B     		cmp	r3, #3
 409 000e 02D0     		beq	.L51
 410              		.loc 1 355 0 is_stmt 0 discriminator 1
 411 0010 0C48     		ldr	r0, .L57
 412 0012 FFF7FEFF 		bl	chDbgPanic
 413              	.LVL40:
 414              	.L51:
 415              		.loc 1 358 0 is_stmt 1
 416 0016 2189     		ldrh	r1, [r4, #8]
 417              		.loc 1 359 0
 418 0018 6289     		ldrh	r2, [r4, #10]
 419              		.loc 1 361 0
 420 001a 0023     		movs	r3, #0
 421              		.loc 1 358 0
 422 001c 21F00101 		bic	r1, r1, #1
 423              		.loc 1 359 0
 424 0020 22F00102 		bic	r2, r2, #1
 425              		.loc 1 358 0
 426 0024 2181     		strh	r1, [r4, #8]	@ movhi
 427              		.loc 1 359 0
 428 0026 6281     		strh	r2, [r4, #10]	@ movhi
 429              	.LVL41:
 430              		.loc 1 361 0
 431 0028 2361     		str	r3, [r4, #16]
 432              	.LVL42:
 433 002a 6361     		str	r3, [r4, #20]
 434              	.LVL43:
 435 002c A361     		str	r3, [r4, #24]
 436              	.LVL44:
 437 002e E361     		str	r3, [r4, #28]
 438              	.LVL45:
 439 0030 2362     		str	r3, [r4, #32]
 440              	.LVL46:
 441              		.loc 1 364 0
 442 0032 2046     		mov	r0, r4
 443              		.loc 1 365 0
 444 0034 BDE81040 		pop	{r4, lr}
 445              		.cfi_remember_state
 446              		.cfi_restore 14
 447              		.cfi_restore 4
 448              		.cfi_def_cfa_offset 0
 449              	.LVL47:
 450              		.loc 1 364 0
 451 0038 FFF7FEBF 		b	usb_lld_disable_endpoints
 452              	.LVL48:
 453              	.L56:
 454              		.cfi_restore_state
 455              		.loc 1 354 0 discriminator 1
 456 003c 0248     		ldr	r0, .L57+4
ARM GAS  /tmp/cc6xd45y.s 			page 9


 457 003e FFF7FEFF 		bl	chDbgPanic
 458              	.LVL49:
 459 0042 E2E7     		b	.L50
 460              	.L58:
 461              		.align	2
 462              	.L57:
 463 0044 A8000000 		.word	.LC8
 464 0048 8C000000 		.word	.LC7
 465              		.cfi_endproc
 466              	.LFE125:
 467              		.size	usbDisableEndpointsI, .-usbDisableEndpointsI
 468              		.section	.text.usbPrepareReceive,"ax",%progbits
 469              		.align	2
 470              		.p2align 4,,15
 471              		.global	usbPrepareReceive
 472              		.thumb
 473              		.thumb_func
 474              		.type	usbPrepareReceive, %function
 475              	usbPrepareReceive:
 476              	.LFB126:
 477              		.loc 1 379 0
 478              		.cfi_startproc
 479              		@ args = 0, pretend = 0, frame = 0
 480              		@ frame_needed = 0, uses_anonymous_args = 0
 481              		@ link register save eliminated.
 482              	.LVL50:
 483 0000 30B4     		push	{r4, r5}
 484              		.cfi_def_cfa_offset 8
 485              		.cfi_offset 4, -8
 486              		.cfi_offset 5, -4
 487              		.loc 1 380 0
 488 0002 00EB8104 		add	r4, r0, r1, lsl #2
 489              		.loc 1 382 0
 490 0006 0025     		movs	r5, #0
 491              		.loc 1 380 0
 492 0008 E468     		ldr	r4, [r4, #12]
 493 000a A469     		ldr	r4, [r4, #24]
 494              	.LVL51:
 495              		.loc 1 383 0
 496 000c E260     		str	r2, [r4, #12]
 497              		.loc 1 384 0
 498 000e 6360     		str	r3, [r4, #4]
 499              		.loc 1 382 0
 500 0010 2570     		strb	r5, [r4]
 501              		.loc 1 385 0
 502 0012 A560     		str	r5, [r4, #8]
 503              		.loc 1 388 0
 504 0014 30BC     		pop	{r4, r5}
 505              		.cfi_restore 5
 506              		.cfi_restore 4
 507              		.cfi_def_cfa_offset 0
 508              	.LVL52:
 509              		.loc 1 387 0
 510 0016 FFF7FEBF 		b	usb_lld_prepare_receive
 511              	.LVL53:
 512              		.cfi_endproc
 513              	.LFE126:
ARM GAS  /tmp/cc6xd45y.s 			page 10


 514              		.size	usbPrepareReceive, .-usbPrepareReceive
 515 001a 00BF     		.section	.text.usbPrepareTransmit,"ax",%progbits
 516              		.align	2
 517              		.p2align 4,,15
 518              		.global	usbPrepareTransmit
 519              		.thumb
 520              		.thumb_func
 521              		.type	usbPrepareTransmit, %function
 522              	usbPrepareTransmit:
 523              	.LFB127:
 524              		.loc 1 405 0
 525              		.cfi_startproc
 526              		@ args = 0, pretend = 0, frame = 0
 527              		@ frame_needed = 0, uses_anonymous_args = 0
 528              		@ link register save eliminated.
 529              	.LVL54:
 530 0000 30B4     		push	{r4, r5}
 531              		.cfi_def_cfa_offset 8
 532              		.cfi_offset 4, -8
 533              		.cfi_offset 5, -4
 534              		.loc 1 406 0
 535 0002 00EB8104 		add	r4, r0, r1, lsl #2
 536              		.loc 1 408 0
 537 0006 0025     		movs	r5, #0
 538              		.loc 1 406 0
 539 0008 E468     		ldr	r4, [r4, #12]
 540 000a 6469     		ldr	r4, [r4, #20]
 541              	.LVL55:
 542              		.loc 1 409 0
 543 000c E260     		str	r2, [r4, #12]
 544              		.loc 1 410 0
 545 000e 6360     		str	r3, [r4, #4]
 546              		.loc 1 408 0
 547 0010 2570     		strb	r5, [r4]
 548              		.loc 1 411 0
 549 0012 A560     		str	r5, [r4, #8]
 550              		.loc 1 414 0
 551 0014 30BC     		pop	{r4, r5}
 552              		.cfi_restore 5
 553              		.cfi_restore 4
 554              		.cfi_def_cfa_offset 0
 555              	.LVL56:
 556              		.loc 1 413 0
 557 0016 FFF7FEBF 		b	usb_lld_prepare_transmit
 558              	.LVL57:
 559              		.cfi_endproc
 560              	.LFE127:
 561              		.size	usbPrepareTransmit, .-usbPrepareTransmit
 562 001a 00BF     		.section	.text.usbPrepareQueuedReceive,"ax",%progbits
 563              		.align	2
 564              		.p2align 4,,15
 565              		.global	usbPrepareQueuedReceive
 566              		.thumb
 567              		.thumb_func
 568              		.type	usbPrepareQueuedReceive, %function
 569              	usbPrepareQueuedReceive:
 570              	.LFB128:
ARM GAS  /tmp/cc6xd45y.s 			page 11


 571              		.loc 1 434 0
 572              		.cfi_startproc
 573              		@ args = 0, pretend = 0, frame = 0
 574              		@ frame_needed = 0, uses_anonymous_args = 0
 575              		@ link register save eliminated.
 576              	.LVL58:
 577 0000 70B4     		push	{r4, r5, r6}
 578              		.cfi_def_cfa_offset 12
 579              		.cfi_offset 4, -12
 580              		.cfi_offset 5, -8
 581              		.cfi_offset 6, -4
 582              		.loc 1 435 0
 583 0002 00EB8104 		add	r4, r0, r1, lsl #2
 584              		.loc 1 437 0
 585 0006 0126     		movs	r6, #1
 586              		.loc 1 435 0
 587 0008 E468     		ldr	r4, [r4, #12]
 588 000a A469     		ldr	r4, [r4, #24]
 589              	.LVL59:
 590              		.loc 1 440 0
 591 000c 0025     		movs	r5, #0
 592              		.loc 1 438 0
 593 000e E260     		str	r2, [r4, #12]
 594              		.loc 1 439 0
 595 0010 6360     		str	r3, [r4, #4]
 596              		.loc 1 437 0
 597 0012 2670     		strb	r6, [r4]
 598              		.loc 1 440 0
 599 0014 A560     		str	r5, [r4, #8]
 600              		.loc 1 443 0
 601 0016 70BC     		pop	{r4, r5, r6}
 602              		.cfi_restore 6
 603              		.cfi_restore 5
 604              		.cfi_restore 4
 605              		.cfi_def_cfa_offset 0
 606              	.LVL60:
 607              		.loc 1 442 0
 608 0018 FFF7FEBF 		b	usb_lld_prepare_receive
 609              	.LVL61:
 610              		.cfi_endproc
 611              	.LFE128:
 612              		.size	usbPrepareQueuedReceive, .-usbPrepareQueuedReceive
 613              		.section	.text.usbPrepareQueuedTransmit,"ax",%progbits
 614              		.align	2
 615              		.p2align 4,,15
 616              		.global	usbPrepareQueuedTransmit
 617              		.thumb
 618              		.thumb_func
 619              		.type	usbPrepareQueuedTransmit, %function
 620              	usbPrepareQueuedTransmit:
 621              	.LFB129:
 622              		.loc 1 460 0
 623              		.cfi_startproc
 624              		@ args = 0, pretend = 0, frame = 0
 625              		@ frame_needed = 0, uses_anonymous_args = 0
 626              		@ link register save eliminated.
 627              	.LVL62:
ARM GAS  /tmp/cc6xd45y.s 			page 12


 628 0000 70B4     		push	{r4, r5, r6}
 629              		.cfi_def_cfa_offset 12
 630              		.cfi_offset 4, -12
 631              		.cfi_offset 5, -8
 632              		.cfi_offset 6, -4
 633              		.loc 1 461 0
 634 0002 00EB8104 		add	r4, r0, r1, lsl #2
 635              		.loc 1 463 0
 636 0006 0126     		movs	r6, #1
 637              		.loc 1 461 0
 638 0008 E468     		ldr	r4, [r4, #12]
 639 000a 6469     		ldr	r4, [r4, #20]
 640              	.LVL63:
 641              		.loc 1 466 0
 642 000c 0025     		movs	r5, #0
 643              		.loc 1 464 0
 644 000e E260     		str	r2, [r4, #12]
 645              		.loc 1 465 0
 646 0010 6360     		str	r3, [r4, #4]
 647              		.loc 1 463 0
 648 0012 2670     		strb	r6, [r4]
 649              		.loc 1 466 0
 650 0014 A560     		str	r5, [r4, #8]
 651              		.loc 1 469 0
 652 0016 70BC     		pop	{r4, r5, r6}
 653              		.cfi_restore 6
 654              		.cfi_restore 5
 655              		.cfi_restore 4
 656              		.cfi_def_cfa_offset 0
 657              	.LVL64:
 658              		.loc 1 468 0
 659 0018 FFF7FEBF 		b	usb_lld_prepare_transmit
 660              	.LVL65:
 661              		.cfi_endproc
 662              	.LFE129:
 663              		.size	usbPrepareQueuedTransmit, .-usbPrepareQueuedTransmit
 664              		.section	.text.usbStartReceiveI,"ax",%progbits
 665              		.align	2
 666              		.p2align 4,,15
 667              		.global	usbStartReceiveI
 668              		.thumb
 669              		.thumb_func
 670              		.type	usbStartReceiveI, %function
 671              	usbStartReceiveI:
 672              	.LFB130:
 673              		.loc 1 485 0
 674              		.cfi_startproc
 675              		@ args = 0, pretend = 0, frame = 0
 676              		@ frame_needed = 0, uses_anonymous_args = 0
 677              	.LVL66:
 678 0000 70B5     		push	{r4, r5, r6, lr}
 679              		.cfi_def_cfa_offset 16
 680              		.cfi_offset 4, -16
 681              		.cfi_offset 5, -12
 682              		.cfi_offset 6, -8
 683              		.cfi_offset 14, -4
 684              		.loc 1 485 0
ARM GAS  /tmp/cc6xd45y.s 			page 13


 685 0002 0546     		mov	r5, r0
 686 0004 0E46     		mov	r6, r1
 687              		.loc 1 487 0
 688 0006 FFF7FEFF 		bl	chDbgCheckClassI
 689              	.LVL67:
 690              		.loc 1 488 0
 691 000a 8DB1     		cbz	r5, .L72
 692              	.L68:
 693              		.loc 1 490 0
 694 000c 6B89     		ldrh	r3, [r5, #10]
 695 000e 43FA06F0 		asr	r0, r3, r6
 696 0012 10F00104 		ands	r4, r0, #1
 697 0016 01D0     		beq	.L73
 698              		.loc 1 491 0
 699 0018 0120     		movs	r0, #1
 700              		.loc 1 496 0
 701 001a 70BD     		pop	{r4, r5, r6, pc}
 702              	.LVL68:
 703              	.L73:
 704              		.loc 1 493 0
 705 001c 0122     		movs	r2, #1
 706 001e B240     		lsls	r2, r2, r6
 707 0020 1343     		orrs	r3, r3, r2
 708              		.loc 1 494 0
 709 0022 2846     		mov	r0, r5
 710              		.loc 1 493 0
 711 0024 6B81     		strh	r3, [r5, #10]	@ movhi
 712              		.loc 1 494 0
 713 0026 3146     		mov	r1, r6
 714 0028 FFF7FEFF 		bl	usb_lld_start_out
 715              	.LVL69:
 716              		.loc 1 495 0
 717 002c 2046     		mov	r0, r4
 718 002e 70BD     		pop	{r4, r5, r6, pc}
 719              	.LVL70:
 720              	.L72:
 721              		.loc 1 488 0 discriminator 1
 722 0030 0148     		ldr	r0, .L74
 723 0032 FFF7FEFF 		bl	chDbgPanic
 724              	.LVL71:
 725 0036 E9E7     		b	.L68
 726              	.L75:
 727              		.align	2
 728              	.L74:
 729 0038 C4000000 		.word	.LC9
 730              		.cfi_endproc
 731              	.LFE130:
 732              		.size	usbStartReceiveI, .-usbStartReceiveI
 733              		.section	.text.usbStartTransmitI,"ax",%progbits
 734              		.align	2
 735              		.p2align 4,,15
 736              		.global	usbStartTransmitI
 737              		.thumb
 738              		.thumb_func
 739              		.type	usbStartTransmitI, %function
 740              	usbStartTransmitI:
 741              	.LFB131:
ARM GAS  /tmp/cc6xd45y.s 			page 14


 742              		.loc 1 512 0
 743              		.cfi_startproc
 744              		@ args = 0, pretend = 0, frame = 0
 745              		@ frame_needed = 0, uses_anonymous_args = 0
 746              	.LVL72:
 747 0000 70B5     		push	{r4, r5, r6, lr}
 748              		.cfi_def_cfa_offset 16
 749              		.cfi_offset 4, -16
 750              		.cfi_offset 5, -12
 751              		.cfi_offset 6, -8
 752              		.cfi_offset 14, -4
 753              		.loc 1 512 0
 754 0002 0546     		mov	r5, r0
 755 0004 0E46     		mov	r6, r1
 756              		.loc 1 514 0
 757 0006 FFF7FEFF 		bl	chDbgCheckClassI
 758              	.LVL73:
 759              		.loc 1 515 0
 760 000a 8DB1     		cbz	r5, .L81
 761              	.L77:
 762              		.loc 1 517 0
 763 000c 2B89     		ldrh	r3, [r5, #8]
 764 000e 43FA06F0 		asr	r0, r3, r6
 765 0012 10F00104 		ands	r4, r0, #1
 766 0016 01D0     		beq	.L82
 767              		.loc 1 518 0
 768 0018 0120     		movs	r0, #1
 769              		.loc 1 523 0
 770 001a 70BD     		pop	{r4, r5, r6, pc}
 771              	.LVL74:
 772              	.L82:
 773              		.loc 1 520 0
 774 001c 0122     		movs	r2, #1
 775 001e B240     		lsls	r2, r2, r6
 776 0020 1343     		orrs	r3, r3, r2
 777              		.loc 1 521 0
 778 0022 2846     		mov	r0, r5
 779              		.loc 1 520 0
 780 0024 2B81     		strh	r3, [r5, #8]	@ movhi
 781              		.loc 1 521 0
 782 0026 3146     		mov	r1, r6
 783 0028 FFF7FEFF 		bl	usb_lld_start_in
 784              	.LVL75:
 785              		.loc 1 522 0
 786 002c 2046     		mov	r0, r4
 787 002e 70BD     		pop	{r4, r5, r6, pc}
 788              	.LVL76:
 789              	.L81:
 790              		.loc 1 515 0 discriminator 1
 791 0030 0148     		ldr	r0, .L83
 792 0032 FFF7FEFF 		bl	chDbgPanic
 793              	.LVL77:
 794 0036 E9E7     		b	.L77
 795              	.L84:
 796              		.align	2
 797              	.L83:
 798 0038 DC000000 		.word	.LC10
ARM GAS  /tmp/cc6xd45y.s 			page 15


 799              		.cfi_endproc
 800              	.LFE131:
 801              		.size	usbStartTransmitI, .-usbStartTransmitI
 802              		.section	.text.usbStallReceiveI,"ax",%progbits
 803              		.align	2
 804              		.p2align 4,,15
 805              		.global	usbStallReceiveI
 806              		.thumb
 807              		.thumb_func
 808              		.type	usbStallReceiveI, %function
 809              	usbStallReceiveI:
 810              	.LFB132:
 811              		.loc 1 537 0
 812              		.cfi_startproc
 813              		@ args = 0, pretend = 0, frame = 0
 814              		@ frame_needed = 0, uses_anonymous_args = 0
 815              	.LVL78:
 816 0000 70B5     		push	{r4, r5, r6, lr}
 817              		.cfi_def_cfa_offset 16
 818              		.cfi_offset 4, -16
 819              		.cfi_offset 5, -12
 820              		.cfi_offset 6, -8
 821              		.cfi_offset 14, -4
 822              		.loc 1 537 0
 823 0002 0546     		mov	r5, r0
 824 0004 0E46     		mov	r6, r1
 825              		.loc 1 539 0
 826 0006 FFF7FEFF 		bl	chDbgCheckClassI
 827              	.LVL79:
 828              		.loc 1 540 0
 829 000a 65B1     		cbz	r5, .L90
 830              	.L86:
 831              		.loc 1 542 0
 832 000c 6889     		ldrh	r0, [r5, #10]
 833 000e 3041     		asrs	r0, r0, r6
 834 0010 10F00104 		ands	r4, r0, #1
 835 0014 01D0     		beq	.L91
 836              		.loc 1 543 0
 837 0016 0120     		movs	r0, #1
 838              		.loc 1 547 0
 839 0018 70BD     		pop	{r4, r5, r6, pc}
 840              	.LVL80:
 841              	.L91:
 842              		.loc 1 545 0
 843 001a 2846     		mov	r0, r5
 844 001c 3146     		mov	r1, r6
 845 001e FFF7FEFF 		bl	usb_lld_stall_out
 846              	.LVL81:
 847              		.loc 1 546 0
 848 0022 2046     		mov	r0, r4
 849 0024 70BD     		pop	{r4, r5, r6, pc}
 850              	.LVL82:
 851              	.L90:
 852              		.loc 1 540 0 discriminator 1
 853 0026 0248     		ldr	r0, .L92
 854 0028 FFF7FEFF 		bl	chDbgPanic
 855              	.LVL83:
ARM GAS  /tmp/cc6xd45y.s 			page 16


 856 002c EEE7     		b	.L86
 857              	.L93:
 858 002e 00BF     		.align	2
 859              	.L92:
 860 0030 F4000000 		.word	.LC11
 861              		.cfi_endproc
 862              	.LFE132:
 863              		.size	usbStallReceiveI, .-usbStallReceiveI
 864              		.section	.text.usbStallTransmitI,"ax",%progbits
 865              		.align	2
 866              		.p2align 4,,15
 867              		.global	usbStallTransmitI
 868              		.thumb
 869              		.thumb_func
 870              		.type	usbStallTransmitI, %function
 871              	usbStallTransmitI:
 872              	.LFB133:
 873              		.loc 1 561 0
 874              		.cfi_startproc
 875              		@ args = 0, pretend = 0, frame = 0
 876              		@ frame_needed = 0, uses_anonymous_args = 0
 877              	.LVL84:
 878 0000 70B5     		push	{r4, r5, r6, lr}
 879              		.cfi_def_cfa_offset 16
 880              		.cfi_offset 4, -16
 881              		.cfi_offset 5, -12
 882              		.cfi_offset 6, -8
 883              		.cfi_offset 14, -4
 884              		.loc 1 561 0
 885 0002 0546     		mov	r5, r0
 886 0004 0E46     		mov	r6, r1
 887              		.loc 1 563 0
 888 0006 FFF7FEFF 		bl	chDbgCheckClassI
 889              	.LVL85:
 890              		.loc 1 564 0
 891 000a 65B1     		cbz	r5, .L99
 892              	.L95:
 893              		.loc 1 566 0
 894 000c 2889     		ldrh	r0, [r5, #8]
 895 000e 3041     		asrs	r0, r0, r6
 896 0010 10F00104 		ands	r4, r0, #1
 897 0014 01D0     		beq	.L100
 898              		.loc 1 567 0
 899 0016 0120     		movs	r0, #1
 900              		.loc 1 571 0
 901 0018 70BD     		pop	{r4, r5, r6, pc}
 902              	.LVL86:
 903              	.L100:
 904              		.loc 1 569 0
 905 001a 2846     		mov	r0, r5
 906 001c 3146     		mov	r1, r6
 907 001e FFF7FEFF 		bl	usb_lld_stall_in
 908              	.LVL87:
 909              		.loc 1 570 0
 910 0022 2046     		mov	r0, r4
 911 0024 70BD     		pop	{r4, r5, r6, pc}
 912              	.LVL88:
ARM GAS  /tmp/cc6xd45y.s 			page 17


 913              	.L99:
 914              		.loc 1 564 0 discriminator 1
 915 0026 0248     		ldr	r0, .L101
 916 0028 FFF7FEFF 		bl	chDbgPanic
 917              	.LVL89:
 918 002c EEE7     		b	.L95
 919              	.L102:
 920 002e 00BF     		.align	2
 921              	.L101:
 922 0030 0C010000 		.word	.LC12
 923              		.cfi_endproc
 924              	.LFE133:
 925              		.size	usbStallTransmitI, .-usbStallTransmitI
 926              		.section	.text._usb_reset,"ax",%progbits
 927              		.align	2
 928              		.p2align 4,,15
 929              		.global	_usb_reset
 930              		.thumb
 931              		.thumb_func
 932              		.type	_usb_reset, %function
 933              	_usb_reset:
 934              	.LFB134:
 935              		.loc 1 582 0
 936              		.cfi_startproc
 937              		@ args = 0, pretend = 0, frame = 0
 938              		@ frame_needed = 0, uses_anonymous_args = 0
 939              		@ link register save eliminated.
 940              	.LVL90:
 941              		.loc 1 586 0
 942 0000 0022     		movs	r2, #0
 943              		.loc 1 585 0
 944 0002 0221     		movs	r1, #2
 945 0004 0170     		strb	r1, [r0]
 946              		.loc 1 586 0
 947 0006 A0F86420 		strh	r2, [r0, #100]	@ movhi
 948              		.loc 1 587 0
 949 000a 80F86620 		strb	r2, [r0, #102]
 950              		.loc 1 588 0
 951 000e 80F86720 		strb	r2, [r0, #103]
 952              		.loc 1 589 0
 953 0012 0281     		strh	r2, [r0, #8]	@ movhi
 954              		.loc 1 590 0
 955 0014 4281     		strh	r2, [r0, #10]	@ movhi
 956              	.LVL91:
 957              		.loc 1 594 0
 958 0016 C260     		str	r2, [r0, #12]
 959              	.LVL92:
 960 0018 0261     		str	r2, [r0, #16]
 961              	.LVL93:
 962 001a 4261     		str	r2, [r0, #20]
 963              	.LVL94:
 964 001c 8261     		str	r2, [r0, #24]
 965              	.LVL95:
 966 001e C261     		str	r2, [r0, #28]
 967              	.LVL96:
 968 0020 0262     		str	r2, [r0, #32]
 969              	.LVL97:
ARM GAS  /tmp/cc6xd45y.s 			page 18


 970              		.loc 1 597 0
 971 0022 80F84C20 		strb	r2, [r0, #76]
 972              		.loc 1 600 0
 973 0026 FFF7FEBF 		b	usb_lld_reset
 974              	.LVL98:
 975              		.cfi_endproc
 976              	.LFE134:
 977              		.size	_usb_reset, .-_usb_reset
 978 002a 00BF     		.section	.text._usb_ep0setup,"ax",%progbits
 979              		.align	2
 980              		.p2align 4,,15
 981              		.global	_usb_ep0setup
 982              		.thumb
 983              		.thumb_func
 984              		.type	_usb_ep0setup, %function
 985              	_usb_ep0setup:
 986              	.LFB135:
 987              		.loc 1 613 0
 988              		.cfi_startproc
 989              		@ args = 0, pretend = 0, frame = 0
 990              		@ frame_needed = 0, uses_anonymous_args = 0
 991              	.LVL99:
 992 0000 F8B5     		push	{r3, r4, r5, r6, r7, lr}
 993              		.cfi_def_cfa_offset 24
 994              		.cfi_offset 3, -24
 995              		.cfi_offset 4, -20
 996              		.cfi_offset 5, -16
 997              		.cfi_offset 6, -12
 998              		.cfi_offset 7, -8
 999              		.cfi_offset 14, -4
 1000              		.loc 1 616 0
 1001 0002 0023     		movs	r3, #0
 1002              		.loc 1 613 0
 1003 0004 0446     		mov	r4, r0
 1004              		.loc 1 616 0
 1005 0006 80F84C30 		strb	r3, [r0, #76]
 1006              		.loc 1 617 0
 1007 000a 00F15C02 		add	r2, r0, #92
 1008 000e FFF7FEFF 		bl	usb_lld_read_setup
 1009              	.LVL100:
 1010              		.loc 1 621 0
 1011 0012 6368     		ldr	r3, [r4, #4]
 1012 0014 9B68     		ldr	r3, [r3, #8]
 1013 0016 8BB3     		cbz	r3, .L109
 1014              		.loc 1 622 0 discriminator 1
 1015 0018 2046     		mov	r0, r4
 1016 001a 9847     		blx	r3
 1017              	.LVL101:
 1018              		.loc 1 621 0 discriminator 1
 1019 001c 70B3     		cbz	r0, .L109
 1020 001e 656D     		ldr	r5, [r4, #84]
 1021 0020 94F85C30 		ldrb	r3, [r4, #92]	@ zero_extendqisi2
 1022              	.L148:
 1023              		.loc 1 646 0
 1024 0024 94F86310 		ldrb	r1, [r4, #99]	@ zero_extendqisi2
 1025 0028 94F86220 		ldrb	r2, [r4, #98]	@ zero_extendqisi2
 1026 002c 42EA0122 		orr	r2, r2, r1, lsl #8
ARM GAS  /tmp/cc6xd45y.s 			page 19


 1027              	.LVL102:
 1028              		.loc 1 648 0
 1029 0030 AA42     		cmp	r2, r5
 1030              		.loc 1 649 0
 1031 0032 3CBF     		itt	cc
 1032 0034 6265     		strcc	r2, [r4, #84]
 1033 0036 1546     		movcc	r5, r2
 1034              		.loc 1 650 0
 1035 0038 13F0800F 		tst	r3, #128
 1036              	.LBB54:
 1037              	.LBB55:
 1038              		.loc 1 406 0
 1039 003c E368     		ldr	r3, [r4, #12]
 1040              	.LBE55:
 1041              	.LBE54:
 1042              		.loc 1 650 0
 1043 003e 40F09380 		bne	.L174
 1044              		.loc 1 676 0
 1045 0042 002D     		cmp	r5, #0
 1046 0044 73D1     		bne	.L175
 1047              	.LBB59:
 1048              	.LBB60:
 1049              		.loc 1 406 0
 1050 0046 5B69     		ldr	r3, [r3, #20]
 1051              	.LBE60:
 1052              	.LBE59:
 1053              		.loc 1 687 0
 1054 0048 0522     		movs	r2, #5
 1055              	.LVL103:
 1056 004a 84F84C20 		strb	r2, [r4, #76]
 1057              	.LVL104:
 1058              	.LBB62:
 1059              	.LBB61:
 1060              		.loc 1 413 0
 1061 004e 2046     		mov	r0, r4
 1062              		.loc 1 408 0
 1063 0050 1D70     		strb	r5, [r3]
 1064              	.LVL105:
 1065              		.loc 1 409 0
 1066 0052 DD60     		str	r5, [r3, #12]
 1067              		.loc 1 410 0
 1068 0054 5D60     		str	r5, [r3, #4]
 1069              		.loc 1 411 0
 1070 0056 9D60     		str	r5, [r3, #8]
 1071              		.loc 1 413 0
 1072 0058 2946     		mov	r1, r5
 1073 005a FFF7FEFF 		bl	usb_lld_prepare_transmit
 1074              	.LVL106:
 1075              	.LBE61:
 1076              	.LBE62:
 1077              	.LBB63:
 1078              		.loc 1 690 0
 1079 005e 2023     		movs	r3, #32
 1080              	@ 690 "../../../os/hal/src/usb.c" 1
 1081 0060 83F31188 		msr     BASEPRI, r3
 1082              	@ 0 "" 2
 1083              		.thumb
ARM GAS  /tmp/cc6xd45y.s 			page 20


 1084              	.LBE63:
 1085 0064 FFF7FEFF 		bl	dbg_check_lock_from_isr
 1086              	.LVL107:
 1087              		.loc 1 691 0
 1088 0068 2946     		mov	r1, r5
 1089 006a 2046     		mov	r0, r4
 1090 006c FFF7FEFF 		bl	usbStartTransmitI
 1091              	.LVL108:
 1092              		.loc 1 692 0
 1093 0070 FFF7FEFF 		bl	dbg_check_unlock_from_isr
 1094              	.LVL109:
 1095              	.LBB64:
 1096 0074 2B46     		mov	r3, r5
 1097              	@ 692 "../../../os/hal/src/usb.c" 1
 1098 0076 83F31188 		msr     BASEPRI, r3
 1099              	@ 0 "" 2
 1100              		.thumb
 1101 007a F8BD     		pop	{r3, r4, r5, r6, r7, pc}
 1102              	.LVL110:
 1103              	.L109:
 1104              	.LBE64:
 1105              		.loc 1 625 0
 1106 007c 94F85C30 		ldrb	r3, [r4, #92]	@ zero_extendqisi2
 1107 0080 13F06007 		ands	r7, r3, #96
 1108 0084 11D0     		beq	.L176
 1109              	.L106:
 1110              		.loc 1 630 0
 1111 0086 2046     		mov	r0, r4
 1112 0088 0021     		movs	r1, #0
 1113 008a FFF7FEFF 		bl	usb_lld_stall_in
 1114              	.LVL111:
 1115              		.loc 1 631 0
 1116 008e 2046     		mov	r0, r4
 1117 0090 0021     		movs	r1, #0
 1118 0092 FFF7FEFF 		bl	usb_lld_stall_out
 1119              	.LVL112:
 1120              		.loc 1 632 0
 1121 0096 6368     		ldr	r3, [r4, #4]
 1122 0098 1B68     		ldr	r3, [r3]
 1123 009a 13B1     		cbz	r3, .L142
 1124              		.loc 1 632 0 is_stmt 0 discriminator 1
 1125 009c 2046     		mov	r0, r4
 1126 009e 0521     		movs	r1, #5
 1127 00a0 9847     		blx	r3
 1128              	.LVL113:
 1129              	.L142:
 1130              		.loc 1 633 0 is_stmt 1
 1131 00a2 0623     		movs	r3, #6
 1132 00a4 84F84C30 		strb	r3, [r4, #76]
 1133              		.loc 1 634 0
 1134 00a8 F8BD     		pop	{r3, r4, r5, r6, r7, pc}
 1135              	.LVL114:
 1136              	.L176:
 1137              	.LBB65:
 1138              	.LBB66:
 1139              		.loc 1 95 0
 1140 00aa 94F85D50 		ldrb	r5, [r4, #93]	@ zero_extendqisi2
ARM GAS  /tmp/cc6xd45y.s 			page 21


 1141              		.loc 1 93 0
 1142 00ae 03F07F02 		and	r2, r3, #127
 1143              		.loc 1 94 0
 1144 00b2 42EA0526 		orr	r6, r2, r5, lsl #8
 1145              		.loc 1 93 0
 1146 00b6 B6F5407F 		cmp	r6, #768
 1147 00ba 00F01081 		beq	.L111
 1148 00be 18DD     		ble	.L177
 1149 00c0 B6F5C06F 		cmp	r6, #1536
 1150 00c4 00F0F280 		beq	.L119
 1151 00c8 40F38780 		ble	.L178
 1152 00cc B6F5106F 		cmp	r6, #2304
 1153 00d0 00F09680 		beq	.L123
 1154 00d4 40F60242 		movw	r2, #3074
 1155 00d8 9642     		cmp	r6, r2
 1156 00da 00F01381 		beq	.L116
 1157 00de B6F5006F 		cmp	r6, #2048
 1158 00e2 D0D1     		bne	.L106
 1159              		.loc 1 142 0
 1160 00e4 04F16702 		add	r2, r4, #103
 1161 00e8 0125     		movs	r5, #1
 1162 00ea A765     		str	r7, [r4, #88]
 1163 00ec 2265     		str	r2, [r4, #80]
 1164 00ee 6565     		str	r5, [r4, #84]
 1165 00f0 98E7     		b	.L148
 1166              	.L177:
 1167              		.loc 1 93 0
 1168 00f2 022E     		cmp	r6, #2
 1169 00f4 00F0C380 		beq	.L113
 1170 00f8 40F3B880 		ble	.L179
 1171 00fc B6F5807F 		cmp	r6, #256
 1172 0100 00F0A480 		beq	.L117
 1173 0104 B6F5817F 		cmp	r6, #258
 1174 0108 BDD1     		bne	.L106
 1175              		.loc 1 188 0
 1176 010a 94F85E20 		ldrb	r2, [r4, #94]	@ zero_extendqisi2
 1177 010e 002A     		cmp	r2, #0
 1178 0110 B9D1     		bne	.L106
 1179              		.loc 1 191 0
 1180 0112 94F86020 		ldrb	r2, [r4, #96]	@ zero_extendqisi2
 1181 0116 12F00F01 		ands	r1, r2, #15
 1182 011a 6CD0     		beq	.L140
 1183              		.loc 1 192 0
 1184 011c 1206     		lsls	r2, r2, #24
 1185              		.loc 1 193 0
 1186 011e 2046     		mov	r0, r4
 1187              		.loc 1 192 0
 1188 0120 00F11881 		bmi	.L180
 1189              	.LVL115:
 1190              		.loc 1 195 0
 1191 0124 FFF7FEFF 		bl	usb_lld_clear_out
 1192              	.LVL116:
 1193 0128 94F85C30 		ldrb	r3, [r4, #92]	@ zero_extendqisi2
 1194 012c 63E0     		b	.L140
 1195              	.LVL117:
 1196              	.L175:
 1197              	.LBE66:
ARM GAS  /tmp/cc6xd45y.s 			page 22


 1198              	.LBE65:
 1199              	.LBB70:
 1200              	.LBB71:
 1201              		.loc 1 380 0
 1202 012e 9B69     		ldr	r3, [r3, #24]
 1203              	.LBE71:
 1204              	.LBE70:
 1205              		.loc 1 679 0
 1206 0130 226D     		ldr	r2, [r4, #80]
 1207              	.LVL118:
 1208              	.LBB74:
 1209              	.LBB72:
 1210              		.loc 1 382 0
 1211 0132 0026     		movs	r6, #0
 1212              	.LBE72:
 1213              	.LBE74:
 1214              		.loc 1 678 0
 1215 0134 0421     		movs	r1, #4
 1216              	.LVL119:
 1217 0136 84F84C10 		strb	r1, [r4, #76]
 1218              	.LBB75:
 1219              	.LBB73:
 1220              		.loc 1 387 0
 1221 013a 2046     		mov	r0, r4
 1222              		.loc 1 383 0
 1223 013c DA60     		str	r2, [r3, #12]
 1224              	.LVL120:
 1225              		.loc 1 384 0
 1226 013e 5D60     		str	r5, [r3, #4]
 1227              		.loc 1 382 0
 1228 0140 1E70     		strb	r6, [r3]
 1229              		.loc 1 385 0
 1230 0142 9E60     		str	r6, [r3, #8]
 1231              		.loc 1 387 0
 1232 0144 3146     		mov	r1, r6
 1233 0146 FFF7FEFF 		bl	usb_lld_prepare_receive
 1234              	.LVL121:
 1235              	.LBE73:
 1236              	.LBE75:
 1237              	.LBB76:
 1238              		.loc 1 680 0
 1239 014a 2023     		movs	r3, #32
 1240              	@ 680 "../../../os/hal/src/usb.c" 1
 1241 014c 83F31188 		msr     BASEPRI, r3
 1242              	@ 0 "" 2
 1243              		.thumb
 1244              	.LBE76:
 1245 0150 FFF7FEFF 		bl	dbg_check_lock_from_isr
 1246              	.LVL122:
 1247              		.loc 1 681 0
 1248 0154 3146     		mov	r1, r6
 1249 0156 2046     		mov	r0, r4
 1250 0158 FFF7FEFF 		bl	usbStartReceiveI
 1251              	.LVL123:
 1252              		.loc 1 682 0
 1253 015c FFF7FEFF 		bl	dbg_check_unlock_from_isr
 1254              	.LVL124:
ARM GAS  /tmp/cc6xd45y.s 			page 23


 1255              	.LBB77:
 1256 0160 3346     		mov	r3, r6
 1257              	@ 682 "../../../os/hal/src/usb.c" 1
 1258 0162 83F31188 		msr     BASEPRI, r3
 1259              	@ 0 "" 2
 1260              		.thumb
 1261              	.LBE77:
 1262 0166 F8BD     		pop	{r3, r4, r5, r6, r7, pc}
 1263              	.LVL125:
 1264              	.L174:
 1265              		.loc 1 652 0
 1266 0168 E5B1     		cbz	r5, .L146
 1267              	.LBB78:
 1268              	.LBB56:
 1269              		.loc 1 406 0
 1270 016a 5B69     		ldr	r3, [r3, #20]
 1271              	.LBE56:
 1272              	.LBE78:
 1273              		.loc 1 655 0
 1274 016c 226D     		ldr	r2, [r4, #80]
 1275              	.LVL126:
 1276              	.LBB79:
 1277              	.LBB57:
 1278              		.loc 1 408 0
 1279 016e 0026     		movs	r6, #0
 1280              	.LBE57:
 1281              	.LBE79:
 1282              		.loc 1 654 0
 1283 0170 0121     		movs	r1, #1
 1284              	.LVL127:
 1285 0172 84F84C10 		strb	r1, [r4, #76]
 1286              	.LBB80:
 1287              	.LBB58:
 1288              		.loc 1 413 0
 1289 0176 2046     		mov	r0, r4
 1290              		.loc 1 409 0
 1291 0178 DA60     		str	r2, [r3, #12]
 1292              	.LVL128:
 1293              		.loc 1 410 0
 1294 017a 5D60     		str	r5, [r3, #4]
 1295              		.loc 1 408 0
 1296 017c 1E70     		strb	r6, [r3]
 1297              		.loc 1 411 0
 1298 017e 9E60     		str	r6, [r3, #8]
 1299              		.loc 1 413 0
 1300 0180 3146     		mov	r1, r6
 1301 0182 FFF7FEFF 		bl	usb_lld_prepare_transmit
 1302              	.LVL129:
 1303              	.LBE58:
 1304              	.LBE80:
 1305              	.LBB81:
 1306              		.loc 1 656 0
 1307 0186 2023     		movs	r3, #32
 1308              	@ 656 "../../../os/hal/src/usb.c" 1
 1309 0188 83F31188 		msr     BASEPRI, r3
 1310              	@ 0 "" 2
 1311              		.thumb
ARM GAS  /tmp/cc6xd45y.s 			page 24


 1312              	.LBE81:
 1313 018c FFF7FEFF 		bl	dbg_check_lock_from_isr
 1314              	.LVL130:
 1315              		.loc 1 657 0
 1316 0190 3146     		mov	r1, r6
 1317 0192 2046     		mov	r0, r4
 1318 0194 FFF7FEFF 		bl	usbStartTransmitI
 1319              	.LVL131:
 1320              		.loc 1 658 0
 1321 0198 FFF7FEFF 		bl	dbg_check_unlock_from_isr
 1322              	.LVL132:
 1323              	.LBB82:
 1324 019c 3346     		mov	r3, r6
 1325              	@ 658 "../../../os/hal/src/usb.c" 1
 1326 019e 83F31188 		msr     BASEPRI, r3
 1327              	@ 0 "" 2
 1328              		.thumb
 1329              	.LBE82:
 1330 01a2 F8BD     		pop	{r3, r4, r5, r6, r7, pc}
 1331              	.LVL133:
 1332              	.L146:
 1333              	.LBB83:
 1334              	.LBB84:
 1335              		.loc 1 380 0
 1336 01a4 9B69     		ldr	r3, [r3, #24]
 1337              	.LBE84:
 1338              	.LBE83:
 1339              		.loc 1 663 0
 1340 01a6 0322     		movs	r2, #3
 1341              	.LVL134:
 1342 01a8 84F84C20 		strb	r2, [r4, #76]
 1343              	.LVL135:
 1344              	.LBB86:
 1345              	.LBB85:
 1346              		.loc 1 387 0
 1347 01ac 2046     		mov	r0, r4
 1348              		.loc 1 382 0
 1349 01ae 1D70     		strb	r5, [r3]
 1350              	.LVL136:
 1351              		.loc 1 383 0
 1352 01b0 DD60     		str	r5, [r3, #12]
 1353              		.loc 1 384 0
 1354 01b2 5D60     		str	r5, [r3, #4]
 1355              		.loc 1 385 0
 1356 01b4 9D60     		str	r5, [r3, #8]
 1357              		.loc 1 387 0
 1358 01b6 2946     		mov	r1, r5
 1359 01b8 FFF7FEFF 		bl	usb_lld_prepare_receive
 1360              	.LVL137:
 1361              	.LBE85:
 1362              	.LBE86:
 1363              	.LBB87:
 1364              		.loc 1 666 0
 1365 01bc 2023     		movs	r3, #32
 1366              	@ 666 "../../../os/hal/src/usb.c" 1
 1367 01be 83F31188 		msr     BASEPRI, r3
 1368              	@ 0 "" 2
ARM GAS  /tmp/cc6xd45y.s 			page 25


 1369              		.thumb
 1370              	.LBE87:
 1371 01c2 FFF7FEFF 		bl	dbg_check_lock_from_isr
 1372              	.LVL138:
 1373              		.loc 1 667 0
 1374 01c6 2946     		mov	r1, r5
 1375 01c8 2046     		mov	r0, r4
 1376 01ca FFF7FEFF 		bl	usbStartReceiveI
 1377              	.LVL139:
 1378              		.loc 1 668 0
 1379 01ce FFF7FEFF 		bl	dbg_check_unlock_from_isr
 1380              	.LVL140:
 1381              	.LBB88:
 1382 01d2 2B46     		mov	r3, r5
 1383              	@ 668 "../../../os/hal/src/usb.c" 1
 1384 01d4 83F31188 		msr     BASEPRI, r3
 1385              	@ 0 "" 2
 1386              		.thumb
 1387 01d8 F8BD     		pop	{r3, r4, r5, r6, r7, pc}
 1388              	.LVL141:
 1389              	.L178:
 1390              	.LBE88:
 1391              	.LBB89:
 1392              	.LBB69:
 1393              		.loc 1 93 0
 1394 01da 40F20232 		movw	r2, #770
 1395 01de 9642     		cmp	r6, r2
 1396 01e0 21D0     		beq	.L121
 1397 01e2 B6F5A06F 		cmp	r6, #1280
 1398 01e6 7FF44EAF 		bne	.L106
 1399              		.loc 1 123 0
 1400 01ea B4F85C20 		ldrh	r2, [r4, #92]
 1401 01ee B2F5A06F 		cmp	r2, #1280
 1402 01f2 00F09D80 		beq	.L181
 1403              	.L140:
 1404              		.loc 1 210 0
 1405 01f6 0025     		movs	r5, #0
 1406 01f8 2565     		str	r5, [r4, #80]
 1407 01fa 6565     		str	r5, [r4, #84]
 1408 01fc A565     		str	r5, [r4, #88]
 1409 01fe 11E7     		b	.L148
 1410              	.L123:
 1411              		.loc 1 146 0
 1412 0200 94F85E20 		ldrb	r2, [r4, #94]	@ zero_extendqisi2
 1413 0204 84F86720 		strb	r2, [r4, #103]
 1414              		.loc 1 147 0
 1415 0208 002A     		cmp	r2, #0
 1416 020a 40F08280 		bne	.L130
 1417              		.loc 1 148 0
 1418 020e 0322     		movs	r2, #3
 1419 0210 2270     		strb	r2, [r4]
 1420              	.L131:
 1421              		.loc 1 151 0
 1422 0212 6268     		ldr	r2, [r4, #4]
 1423 0214 1268     		ldr	r2, [r2]
 1424 0216 002A     		cmp	r2, #0
 1425 0218 EDD0     		beq	.L140
ARM GAS  /tmp/cc6xd45y.s 			page 26


 1426 021a 2046     		mov	r0, r4
 1427 021c 0221     		movs	r1, #2
 1428 021e 9047     		blx	r2
 1429              	.LVL142:
 1430 0220 94F85C30 		ldrb	r3, [r4, #92]	@ zero_extendqisi2
 1431 0224 E7E7     		b	.L140
 1432              	.L121:
 1433              		.loc 1 201 0
 1434 0226 94F85E20 		ldrb	r2, [r4, #94]	@ zero_extendqisi2
 1435 022a 002A     		cmp	r2, #0
 1436 022c 7FF42BAF 		bne	.L106
 1437              		.loc 1 204 0
 1438 0230 94F86020 		ldrb	r2, [r4, #96]	@ zero_extendqisi2
 1439 0234 12F00F01 		ands	r1, r2, #15
 1440 0238 DDD0     		beq	.L140
 1441              		.loc 1 205 0
 1442 023a 1306     		lsls	r3, r2, #24
 1443              		.loc 1 206 0
 1444 023c 2046     		mov	r0, r4
 1445              		.loc 1 205 0
 1446 023e 00F18E80 		bmi	.L182
 1447              	.LVL143:
 1448              		.loc 1 208 0
 1449 0242 FFF7FEFF 		bl	usb_lld_stall_out
 1450              	.LVL144:
 1451 0246 94F85C30 		ldrb	r3, [r4, #92]	@ zero_extendqisi2
 1452 024a D4E7     		b	.L140
 1453              	.L117:
 1454              		.loc 1 103 0
 1455 024c 94F85E20 		ldrb	r2, [r4, #94]	@ zero_extendqisi2
 1456 0250 012A     		cmp	r2, #1
 1457 0252 7FF418AF 		bne	.L106
 1458              		.loc 1 104 0
 1459 0256 B4F86420 		ldrh	r2, [r4, #100]
 1460              		.loc 1 105 0
 1461 025a 2765     		str	r7, [r4, #80]
 1462              		.loc 1 104 0
 1463 025c 22F00202 		bic	r2, r2, #2
 1464              		.loc 1 105 0
 1465 0260 6765     		str	r7, [r4, #84]
 1466 0262 A765     		str	r7, [r4, #88]
 1467 0264 3D46     		mov	r5, r7
 1468              		.loc 1 104 0
 1469 0266 A4F86420 		strh	r2, [r4, #100]	@ movhi
 1470 026a DBE6     		b	.L148
 1471              	.L179:
 1472              		.loc 1 93 0
 1473 026c 002E     		cmp	r6, #0
 1474 026e 46D1     		bne	.L183
 1475              		.loc 1 98 0
 1476 0270 04F16402 		add	r2, r4, #100
 1477 0274 0225     		movs	r5, #2
 1478 0276 A665     		str	r6, [r4, #88]
 1479 0278 2265     		str	r2, [r4, #80]
 1480 027a 6565     		str	r5, [r4, #84]
 1481 027c D2E6     		b	.L148
 1482              	.L113:
ARM GAS  /tmp/cc6xd45y.s 			page 27


 1483              		.loc 1 162 0
 1484 027e 94F86010 		ldrb	r1, [r4, #96]	@ zero_extendqisi2
 1485 0282 11F0800F 		tst	r1, #128
 1486              		.loc 1 163 0
 1487 0286 2046     		mov	r0, r4
 1488 0288 01F00F01 		and	r1, r1, #15
 1489              		.loc 1 162 0
 1490 028c 44D1     		bne	.L184
 1491              	.LVL145:
 1492              		.loc 1 175 0
 1493 028e FFF7FEFF 		bl	usb_lld_get_status_out
 1494              	.LVL146:
 1495 0292 0128     		cmp	r0, #1
 1496 0294 44D0     		beq	.L136
 1497              	.L172:
 1498 0296 0228     		cmp	r0, #2
 1499 0298 7FF4F5AE 		bne	.L106
 1500              		.loc 1 180 0
 1501 029c 324B     		ldr	r3, .L185
 1502 029e 2365     		str	r3, [r4, #80]
 1503 02a0 6065     		str	r0, [r4, #84]
 1504 02a2 A765     		str	r7, [r4, #88]
 1505 02a4 0546     		mov	r5, r0
 1506 02a6 94F85C30 		ldrb	r3, [r4, #92]	@ zero_extendqisi2
 1507 02aa BBE6     		b	.L148
 1508              	.L119:
 1509              		.loc 1 133 0
 1510 02ac 6268     		ldr	r2, [r4, #4]
 1511              		.loc 1 135 0
 1512 02ae 94F86100 		ldrb	r0, [r4, #97]	@ zero_extendqisi2
 1513              		.loc 1 133 0
 1514 02b2 94F86030 		ldrb	r3, [r4, #96]	@ zero_extendqisi2
 1515 02b6 5568     		ldr	r5, [r2, #4]
 1516 02b8 94F85F10 		ldrb	r1, [r4, #95]	@ zero_extendqisi2
 1517 02bc 94F85E20 		ldrb	r2, [r4, #94]	@ zero_extendqisi2
 1518 02c0 43EA0023 		orr	r3, r3, r0, lsl #8
 1519 02c4 2046     		mov	r0, r4
 1520 02c6 A847     		blx	r5
 1521              	.LVL147:
 1522              		.loc 1 136 0
 1523 02c8 0028     		cmp	r0, #0
 1524 02ca 3FF4DCAE 		beq	.L106
 1525              		.loc 1 138 0
 1526 02ce 4368     		ldr	r3, [r0, #4]
 1527 02d0 0568     		ldr	r5, [r0]
 1528 02d2 6565     		str	r5, [r4, #84]
 1529 02d4 2365     		str	r3, [r4, #80]
 1530 02d6 A765     		str	r7, [r4, #88]
 1531 02d8 94F85C30 		ldrb	r3, [r4, #92]	@ zero_extendqisi2
 1532 02dc A2E6     		b	.L148
 1533              	.LVL148:
 1534              	.L111:
 1535              		.loc 1 112 0
 1536 02de 94F85E20 		ldrb	r2, [r4, #94]	@ zero_extendqisi2
 1537 02e2 012A     		cmp	r2, #1
 1538 02e4 7FF4CFAE 		bne	.L106
 1539              		.loc 1 113 0
ARM GAS  /tmp/cc6xd45y.s 			page 28


 1540 02e8 B4F86420 		ldrh	r2, [r4, #100]
 1541              		.loc 1 114 0
 1542 02ec 2765     		str	r7, [r4, #80]
 1543              		.loc 1 113 0
 1544 02ee 42F00202 		orr	r2, r2, #2
 1545              		.loc 1 114 0
 1546 02f2 6765     		str	r7, [r4, #84]
 1547 02f4 A765     		str	r7, [r4, #88]
 1548 02f6 3D46     		mov	r5, r7
 1549              		.loc 1 113 0
 1550 02f8 A4F86420 		strh	r2, [r4, #100]	@ movhi
 1551 02fc 92E6     		b	.L148
 1552              	.L183:
 1553              		.loc 1 93 0
 1554 02fe 012E     		cmp	r6, #1
 1555 0300 7FF4C1AE 		bne	.L106
 1556              	.L116:
 1557              		.loc 1 158 0
 1558 0304 194A     		ldr	r2, .L185+4
 1559 0306 2265     		str	r2, [r4, #80]
 1560 0308 0225     		movs	r5, #2
 1561 030a 0022     		movs	r2, #0
 1562 030c 6565     		str	r5, [r4, #84]
 1563 030e A265     		str	r2, [r4, #88]
 1564 0310 88E6     		b	.L148
 1565              	.L130:
 1566              		.loc 1 150 0
 1567 0312 0422     		movs	r2, #4
 1568 0314 2270     		strb	r2, [r4]
 1569 0316 7CE7     		b	.L131
 1570              	.LVL149:
 1571              	.L184:
 1572              		.loc 1 163 0
 1573 0318 FFF7FEFF 		bl	usb_lld_get_status_in
 1574              	.LVL150:
 1575 031c 0128     		cmp	r0, #1
 1576 031e BAD1     		bne	.L172
 1577              	.L136:
 1578              		.loc 1 177 0
 1579 0320 134B     		ldr	r3, .L185+8
 1580 0322 2365     		str	r3, [r4, #80]
 1581 0324 6665     		str	r6, [r4, #84]
 1582 0326 A765     		str	r7, [r4, #88]
 1583 0328 3546     		mov	r5, r6
 1584 032a 94F85C30 		ldrb	r3, [r4, #92]	@ zero_extendqisi2
 1585 032e 79E6     		b	.L148
 1586              	.L181:
 1587              	.LVL151:
 1588              	.LBB67:
 1589              	.LBB68:
 1590              		.loc 1 71 0
 1591 0330 94F85E30 		ldrb	r3, [r4, #94]	@ zero_extendqisi2
 1592 0334 84F86630 		strb	r3, [r4, #102]
 1593              		.loc 1 72 0
 1594 0338 2046     		mov	r0, r4
 1595 033a FFF7FEFF 		bl	usb_lld_set_address
 1596              	.LVL152:
ARM GAS  /tmp/cc6xd45y.s 			page 29


 1597              		.loc 1 73 0
 1598 033e 6368     		ldr	r3, [r4, #4]
 1599 0340 1B68     		ldr	r3, [r3]
 1600 0342 13B1     		cbz	r3, .L129
 1601 0344 2046     		mov	r0, r4
 1602 0346 0121     		movs	r1, #1
 1603 0348 9847     		blx	r3
 1604              	.LVL153:
 1605              	.L129:
 1606              		.loc 1 74 0
 1607 034a 0322     		movs	r2, #3
 1608 034c 94F85C30 		ldrb	r3, [r4, #92]	@ zero_extendqisi2
 1609 0350 2270     		strb	r2, [r4]
 1610 0352 50E7     		b	.L140
 1611              	.LVL154:
 1612              	.L180:
 1613              	.LBE68:
 1614              	.LBE67:
 1615              		.loc 1 193 0
 1616 0354 FFF7FEFF 		bl	usb_lld_clear_in
 1617              	.LVL155:
 1618 0358 94F85C30 		ldrb	r3, [r4, #92]	@ zero_extendqisi2
 1619 035c 4BE7     		b	.L140
 1620              	.LVL156:
 1621              	.L182:
 1622              		.loc 1 206 0
 1623 035e FFF7FEFF 		bl	usb_lld_stall_in
 1624              	.LVL157:
 1625 0362 94F85C30 		ldrb	r3, [r4, #92]	@ zero_extendqisi2
 1626 0366 46E7     		b	.L140
 1627              	.L186:
 1628              		.align	2
 1629              	.L185:
 1630 0368 00000000 		.word	.LANCHOR2
 1631 036c 00000000 		.word	.LANCHOR0
 1632 0370 00000000 		.word	.LANCHOR1
 1633              	.LBE69:
 1634              	.LBE89:
 1635              		.cfi_endproc
 1636              	.LFE135:
 1637              		.size	_usb_ep0setup, .-_usb_ep0setup
 1638              		.section	.text._usb_ep0in,"ax",%progbits
 1639              		.align	2
 1640              		.p2align 4,,15
 1641              		.global	_usb_ep0in
 1642              		.thumb
 1643              		.thumb_func
 1644              		.type	_usb_ep0in, %function
 1645              	_usb_ep0in:
 1646              	.LFB136:
 1647              		.loc 1 710 0
 1648              		.cfi_startproc
 1649              		@ args = 0, pretend = 0, frame = 0
 1650              		@ frame_needed = 0, uses_anonymous_args = 0
 1651              	.LVL158:
 1652 0000 38B5     		push	{r3, r4, r5, lr}
 1653              		.cfi_def_cfa_offset 16
ARM GAS  /tmp/cc6xd45y.s 			page 30


 1654              		.cfi_offset 3, -16
 1655              		.cfi_offset 4, -12
 1656              		.cfi_offset 5, -8
 1657              		.cfi_offset 14, -4
 1658              		.loc 1 714 0
 1659 0002 90F84C30 		ldrb	r3, [r0, #76]	@ zero_extendqisi2
 1660 0006 022B     		cmp	r3, #2
 1661              		.loc 1 710 0
 1662 0008 0446     		mov	r4, r0
 1663              		.loc 1 714 0
 1664 000a 47D0     		beq	.L189
 1665 000c 052B     		cmp	r3, #5
 1666 000e 3ED0     		beq	.L190
 1667 0010 012B     		cmp	r3, #1
 1668 0012 10D0     		beq	.L205
 1669              		.loc 1 753 0
 1670 0014 0021     		movs	r1, #0
 1671              	.LVL159:
 1672 0016 FFF7FEFF 		bl	usb_lld_stall_in
 1673              	.LVL160:
 1674              		.loc 1 754 0
 1675 001a 2046     		mov	r0, r4
 1676 001c 0021     		movs	r1, #0
 1677 001e FFF7FEFF 		bl	usb_lld_stall_out
 1678              	.LVL161:
 1679              		.loc 1 755 0
 1680 0022 6368     		ldr	r3, [r4, #4]
 1681 0024 1B68     		ldr	r3, [r3]
 1682 0026 13B1     		cbz	r3, .L196
 1683              		.loc 1 755 0 is_stmt 0 discriminator 1
 1684 0028 2046     		mov	r0, r4
 1685 002a 0521     		movs	r1, #5
 1686 002c 9847     		blx	r3
 1687              	.LVL162:
 1688              	.L196:
 1689              		.loc 1 756 0 is_stmt 1
 1690 002e 0623     		movs	r3, #6
 1691 0030 84F84C30 		strb	r3, [r4, #76]
 1692 0034 38BD     		pop	{r3, r4, r5, pc}
 1693              	.LVL163:
 1694              	.L205:
 1695              		.loc 1 716 0
 1696 0036 90F86330 		ldrb	r3, [r0, #99]	@ zero_extendqisi2
 1697 003a 90F86220 		ldrb	r2, [r0, #98]	@ zero_extendqisi2
 1698              		.loc 1 720 0
 1699 003e 416D     		ldr	r1, [r0, #84]
 1700              	.LVL164:
 1701              		.loc 1 716 0
 1702 0040 42EA0322 		orr	r2, r2, r3, lsl #8
 1703              		.loc 1 720 0
 1704 0044 8A42     		cmp	r2, r1
 1705 0046 C268     		ldr	r2, [r0, #12]
 1706 0048 05D9     		bls	.L193
 1707              		.loc 1 720 0 is_stmt 0 discriminator 1
 1708 004a 158A     		ldrh	r5, [r2, #16]
 1709 004c B1FBF5F3 		udiv	r3, r1, r5
 1710 0050 05FB1315 		mls	r5, r5, r3, r1
ARM GAS  /tmp/cc6xd45y.s 			page 31


 1711 0054 25B3     		cbz	r5, .L206
 1712              	.LVL165:
 1713              	.L193:
 1714              	.LBB90:
 1715              	.LBB91:
 1716              		.loc 1 380 0 is_stmt 1
 1717 0056 9369     		ldr	r3, [r2, #24]
 1718              		.loc 1 382 0
 1719 0058 0025     		movs	r5, #0
 1720              	.LBE91:
 1721              	.LBE90:
 1722              		.loc 1 731 0
 1723 005a 0322     		movs	r2, #3
 1724 005c 84F84C20 		strb	r2, [r4, #76]
 1725              	.LVL166:
 1726              	.LBB93:
 1727              	.LBB92:
 1728              		.loc 1 387 0
 1729 0060 2946     		mov	r1, r5
 1730              		.loc 1 382 0
 1731 0062 1D70     		strb	r5, [r3]
 1732              		.loc 1 383 0
 1733 0064 DD60     		str	r5, [r3, #12]
 1734              		.loc 1 384 0
 1735 0066 5D60     		str	r5, [r3, #4]
 1736              		.loc 1 385 0
 1737 0068 9D60     		str	r5, [r3, #8]
 1738              		.loc 1 387 0
 1739 006a 2046     		mov	r0, r4
 1740              	.LVL167:
 1741 006c FFF7FEFF 		bl	usb_lld_prepare_receive
 1742              	.LVL168:
 1743              	.LBE92:
 1744              	.LBE93:
 1745              	.LBB94:
 1746              		.loc 1 734 0
 1747 0070 2023     		movs	r3, #32
 1748              	@ 734 "../../../os/hal/src/usb.c" 1
 1749 0072 83F31188 		msr     BASEPRI, r3
 1750              	@ 0 "" 2
 1751              		.thumb
 1752              	.LBE94:
 1753 0076 FFF7FEFF 		bl	dbg_check_lock_from_isr
 1754              	.LVL169:
 1755              		.loc 1 735 0
 1756 007a 2946     		mov	r1, r5
 1757 007c 2046     		mov	r0, r4
 1758 007e FFF7FEFF 		bl	usbStartReceiveI
 1759              	.LVL170:
 1760              		.loc 1 736 0
 1761 0082 FFF7FEFF 		bl	dbg_check_unlock_from_isr
 1762              	.LVL171:
 1763              	.LBB95:
 1764 0086 2B46     		mov	r3, r5
 1765              	@ 736 "../../../os/hal/src/usb.c" 1
 1766 0088 83F31188 		msr     BASEPRI, r3
 1767              	@ 0 "" 2
ARM GAS  /tmp/cc6xd45y.s 			page 32


 1768              		.thumb
 1769              	.LBE95:
 1770              		.loc 1 740 0
 1771 008c 38BD     		pop	{r3, r4, r5, pc}
 1772              	.LVL172:
 1773              	.L190:
 1774              		.loc 1 743 0
 1775 008e 836D     		ldr	r3, [r0, #88]
 1776 0090 03B1     		cbz	r3, .L195
 1777              		.loc 1 744 0
 1778 0092 9847     		blx	r3
 1779              	.LVL173:
 1780              	.L195:
 1781              		.loc 1 745 0
 1782 0094 0023     		movs	r3, #0
 1783 0096 84F84C30 		strb	r3, [r4, #76]
 1784              		.loc 1 746 0
 1785 009a 38BD     		pop	{r3, r4, r5, pc}
 1786              	.LVL174:
 1787              	.L189:
 1788 009c C268     		ldr	r2, [r0, #12]
 1789 009e DAE7     		b	.L193
 1790              	.LVL175:
 1791              	.L206:
 1792              	.LBB96:
 1793              	.LBB97:
 1794              		.loc 1 406 0
 1795 00a0 5369     		ldr	r3, [r2, #20]
 1796              	.LVL176:
 1797              		.loc 1 413 0
 1798 00a2 2946     		mov	r1, r5
 1799              		.loc 1 408 0
 1800 00a4 1D70     		strb	r5, [r3]
 1801              	.LVL177:
 1802              		.loc 1 409 0
 1803 00a6 DD60     		str	r5, [r3, #12]
 1804              		.loc 1 410 0
 1805 00a8 5D60     		str	r5, [r3, #4]
 1806              		.loc 1 411 0
 1807 00aa 9D60     		str	r5, [r3, #8]
 1808              		.loc 1 413 0
 1809 00ac FFF7FEFF 		bl	usb_lld_prepare_transmit
 1810              	.LVL178:
 1811              	.LBE97:
 1812              	.LBE96:
 1813              	.LBB98:
 1814              		.loc 1 722 0
 1815 00b0 2023     		movs	r3, #32
 1816              	@ 722 "../../../os/hal/src/usb.c" 1
 1817 00b2 83F31188 		msr     BASEPRI, r3
 1818              	@ 0 "" 2
 1819              		.thumb
 1820              	.LBE98:
 1821 00b6 FFF7FEFF 		bl	dbg_check_lock_from_isr
 1822              	.LVL179:
 1823              		.loc 1 723 0
 1824 00ba 2946     		mov	r1, r5
ARM GAS  /tmp/cc6xd45y.s 			page 33


 1825 00bc 2046     		mov	r0, r4
 1826 00be FFF7FEFF 		bl	usbStartTransmitI
 1827              	.LVL180:
 1828              		.loc 1 724 0
 1829 00c2 FFF7FEFF 		bl	dbg_check_unlock_from_isr
 1830              	.LVL181:
 1831              	.LBB99:
 1832 00c6 2B46     		mov	r3, r5
 1833              	@ 724 "../../../os/hal/src/usb.c" 1
 1834 00c8 83F31188 		msr     BASEPRI, r3
 1835              	@ 0 "" 2
 1836              		.thumb
 1837              	.LBE99:
 1838              		.loc 1 725 0
 1839 00cc 0223     		movs	r3, #2
 1840 00ce 84F84C30 		strb	r3, [r4, #76]
 1841              		.loc 1 726 0
 1842 00d2 38BD     		pop	{r3, r4, r5, pc}
 1843              		.cfi_endproc
 1844              	.LFE136:
 1845              		.size	_usb_ep0in, .-_usb_ep0in
 1846              		.section	.text._usb_ep0out,"ax",%progbits
 1847              		.align	2
 1848              		.p2align 4,,15
 1849              		.global	_usb_ep0out
 1850              		.thumb
 1851              		.thumb_func
 1852              		.type	_usb_ep0out, %function
 1853              	_usb_ep0out:
 1854              	.LFB137:
 1855              		.loc 1 769 0
 1856              		.cfi_startproc
 1857              		@ args = 0, pretend = 0, frame = 0
 1858              		@ frame_needed = 0, uses_anonymous_args = 0
 1859              	.LVL182:
 1860 0000 38B5     		push	{r3, r4, r5, lr}
 1861              		.cfi_def_cfa_offset 16
 1862              		.cfi_offset 3, -16
 1863              		.cfi_offset 4, -12
 1864              		.cfi_offset 5, -8
 1865              		.cfi_offset 14, -4
 1866              		.loc 1 772 0
 1867 0002 90F84C30 		ldrb	r3, [r0, #76]	@ zero_extendqisi2
 1868 0006 032B     		cmp	r3, #3
 1869              		.loc 1 769 0
 1870 0008 0446     		mov	r4, r0
 1871              		.loc 1 772 0
 1872 000a 2FD0     		beq	.L209
 1873 000c 042B     		cmp	r3, #4
 1874 000e 11D0     		beq	.L221
 1875              	.L208:
 1876              		.loc 1 802 0
 1877 0010 2046     		mov	r0, r4
 1878              	.LVL183:
 1879 0012 0021     		movs	r1, #0
 1880              	.LVL184:
 1881 0014 FFF7FEFF 		bl	usb_lld_stall_in
ARM GAS  /tmp/cc6xd45y.s 			page 34


 1882              	.LVL185:
 1883              		.loc 1 803 0
 1884 0018 2046     		mov	r0, r4
 1885 001a 0021     		movs	r1, #0
 1886 001c FFF7FEFF 		bl	usb_lld_stall_out
 1887              	.LVL186:
 1888              		.loc 1 804 0
 1889 0020 6368     		ldr	r3, [r4, #4]
 1890 0022 1B68     		ldr	r3, [r3]
 1891 0024 13B1     		cbz	r3, .L213
 1892              		.loc 1 804 0 is_stmt 0 discriminator 1
 1893 0026 2046     		mov	r0, r4
 1894 0028 0521     		movs	r1, #5
 1895 002a 9847     		blx	r3
 1896              	.LVL187:
 1897              	.L213:
 1898              		.loc 1 805 0 is_stmt 1
 1899 002c 0623     		movs	r3, #6
 1900 002e 84F84C30 		strb	r3, [r4, #76]
 1901 0032 38BD     		pop	{r3, r4, r5, pc}
 1902              	.LVL188:
 1903              	.L221:
 1904              	.LBB100:
 1905              	.LBB101:
 1906              		.loc 1 406 0
 1907 0034 C368     		ldr	r3, [r0, #12]
 1908 0036 5B69     		ldr	r3, [r3, #20]
 1909              		.loc 1 408 0
 1910 0038 0025     		movs	r5, #0
 1911              	.LBE101:
 1912              	.LBE100:
 1913              		.loc 1 775 0
 1914 003a 0522     		movs	r2, #5
 1915 003c 80F84C20 		strb	r2, [r0, #76]
 1916              	.LVL189:
 1917              	.LBB103:
 1918              	.LBB102:
 1919              		.loc 1 413 0
 1920 0040 2946     		mov	r1, r5
 1921              	.LVL190:
 1922              		.loc 1 408 0
 1923 0042 1D70     		strb	r5, [r3]
 1924              		.loc 1 409 0
 1925 0044 DD60     		str	r5, [r3, #12]
 1926              		.loc 1 410 0
 1927 0046 5D60     		str	r5, [r3, #4]
 1928              		.loc 1 411 0
 1929 0048 9D60     		str	r5, [r3, #8]
 1930              		.loc 1 413 0
 1931 004a FFF7FEFF 		bl	usb_lld_prepare_transmit
 1932              	.LVL191:
 1933              	.LBE102:
 1934              	.LBE103:
 1935              	.LBB104:
 1936              		.loc 1 778 0
 1937 004e 2023     		movs	r3, #32
 1938              	@ 778 "../../../os/hal/src/usb.c" 1
ARM GAS  /tmp/cc6xd45y.s 			page 35


 1939 0050 83F31188 		msr     BASEPRI, r3
 1940              	@ 0 "" 2
 1941              		.thumb
 1942              	.LBE104:
 1943 0054 FFF7FEFF 		bl	dbg_check_lock_from_isr
 1944              	.LVL192:
 1945              		.loc 1 779 0
 1946 0058 2946     		mov	r1, r5
 1947 005a 2046     		mov	r0, r4
 1948 005c FFF7FEFF 		bl	usbStartTransmitI
 1949              	.LVL193:
 1950              		.loc 1 780 0
 1951 0060 FFF7FEFF 		bl	dbg_check_unlock_from_isr
 1952              	.LVL194:
 1953              	.LBB105:
 1954 0064 2B46     		mov	r3, r5
 1955              	@ 780 "../../../os/hal/src/usb.c" 1
 1956 0066 83F31188 		msr     BASEPRI, r3
 1957              	@ 0 "" 2
 1958              		.thumb
 1959              	.LBE105:
 1960              		.loc 1 784 0
 1961 006a 38BD     		pop	{r3, r4, r5, pc}
 1962              	.LVL195:
 1963              	.L209:
 1964              		.loc 1 789 0
 1965 006c C368     		ldr	r3, [r0, #12]
 1966 006e 9B69     		ldr	r3, [r3, #24]
 1967 0070 9B68     		ldr	r3, [r3, #8]
 1968 0072 002B     		cmp	r3, #0
 1969 0074 CCD1     		bne	.L208
 1970              		.loc 1 792 0
 1971 0076 836D     		ldr	r3, [r0, #88]
 1972 0078 03B1     		cbz	r3, .L212
 1973              		.loc 1 793 0
 1974 007a 9847     		blx	r3
 1975              	.LVL196:
 1976              	.L212:
 1977              		.loc 1 794 0
 1978 007c 0023     		movs	r3, #0
 1979 007e 84F84C30 		strb	r3, [r4, #76]
 1980              		.loc 1 795 0
 1981 0082 38BD     		pop	{r3, r4, r5, pc}
 1982              		.cfi_endproc
 1983              	.LFE137:
 1984              		.size	_usb_ep0out, .-_usb_ep0out
 1985              		.section	.rodata.zero_status,"a",%progbits
 1986              		.align	2
 1987              		.set	.LANCHOR0,. + 0
 1988              		.type	zero_status, %object
 1989              		.size	zero_status, 2
 1990              	zero_status:
 1991 0000 0000     		.space	2
 1992              		.section	.rodata.active_status,"a",%progbits
 1993              		.align	2
 1994              		.set	.LANCHOR2,. + 0
 1995              		.type	active_status, %object
ARM GAS  /tmp/cc6xd45y.s 			page 36


 1996              		.size	active_status, 2
 1997              	active_status:
 1998 0000 0000     		.space	2
 1999              		.section	.rodata.str1.4,"aMS",%progbits,1
 2000              		.align	2
 2001              	.LC0:
 2002 0000 22757362 		.ascii	"\"usbStart\"()\000"
 2002      53746172 
 2002      74222829 
 2002      00
 2003 000d 000000   		.space	3
 2004              	.LC1:
 2005 0010 75736253 		.ascii	"usbStart(), #1\000"
 2005      74617274 
 2005      28292C20 
 2005      233100
 2006 001f 00       		.space	1
 2007              	.LC2:
 2008 0020 22757362 		.ascii	"\"usbStop\"()\000"
 2008      53746F70 
 2008      22282900 
 2009              	.LC3:
 2010 002c 75736253 		.ascii	"usbStop(), #1\000"
 2010      746F7028 
 2010      292C2023 
 2010      3100
 2011 003a 0000     		.space	2
 2012              	.LC4:
 2013 003c 22757362 		.ascii	"\"usbInitEndpointI\"()\000"
 2013      496E6974 
 2013      456E6470 
 2013      6F696E74 
 2013      49222829 
 2014 0051 000000   		.space	3
 2015              	.LC5:
 2016 0054 75736245 		.ascii	"usbEnableEndpointI(), #1\000"
 2016      6E61626C 
 2016      65456E64 
 2016      706F696E 
 2016      74492829 
 2017 006d 000000   		.space	3
 2018              	.LC6:
 2019 0070 75736245 		.ascii	"usbEnableEndpointI(), #2\000"
 2019      6E61626C 
 2019      65456E64 
 2019      706F696E 
 2019      74492829 
 2020 0089 000000   		.space	3
 2021              	.LC7:
 2022 008c 22757362 		.ascii	"\"usbDisableEndpointsI\"()\000"
 2022      44697361 
 2022      626C6545 
 2022      6E64706F 
 2022      696E7473 
 2023 00a5 000000   		.space	3
 2024              	.LC8:
 2025 00a8 75736244 		.ascii	"usbDisableEndpointsI(), #1\000"
ARM GAS  /tmp/cc6xd45y.s 			page 37


 2025      69736162 
 2025      6C65456E 
 2025      64706F69 
 2025      6E747349 
 2026 00c3 00       		.space	1
 2027              	.LC9:
 2028 00c4 22757362 		.ascii	"\"usbStartReceiveI\"()\000"
 2028      53746172 
 2028      74526563 
 2028      65697665 
 2028      49222829 
 2029 00d9 000000   		.space	3
 2030              	.LC10:
 2031 00dc 22757362 		.ascii	"\"usbStartTransmitI\"()\000"
 2031      53746172 
 2031      74547261 
 2031      6E736D69 
 2031      74492228 
 2032 00f2 0000     		.space	2
 2033              	.LC11:
 2034 00f4 22757362 		.ascii	"\"usbStallReceiveI\"()\000"
 2034      5374616C 
 2034      6C526563 
 2034      65697665 
 2034      49222829 
 2035 0109 000000   		.space	3
 2036              	.LC12:
 2037 010c 22757362 		.ascii	"\"usbStallTransmitI\"()\000"
 2037      5374616C 
 2037      6C547261 
 2037      6E736D69 
 2037      74492228 
 2038              		.section	.rodata.halted_status,"a",%progbits
 2039              		.align	2
 2040              		.set	.LANCHOR1,. + 0
 2041              		.type	halted_status, %object
 2042              		.size	halted_status, 2
 2043              	halted_status:
 2044 0000 01       		.byte	1
 2045 0001 00       		.byte	0
 2046              		.text
 2047              	.Letext0:
 2048              		.file 2 "/usr/lib/gcc/arm-none-eabi/4.9.3/include/stddef.h"
 2049              		.file 3 "/usr/include/newlib/machine/_default_types.h"
 2050              		.file 4 "/usr/include/newlib/sys/_stdint.h"
 2051              		.file 5 "../../../os/ports/GCC/ARMCMx/chtypes.h"
 2052              		.file 6 "../../../os/kernel/include/chlists.h"
 2053              		.file 7 "../../../os/kernel/include/chthreads.h"
 2054              		.file 8 "../../../os/ports/GCC/ARMCMx/chcore_v7m.h"
 2055              		.file 9 "../../../os/kernel/include/chmtx.h"
 2056              		.file 10 "../../../os/kernel/include/chqueues.h"
 2057              		.file 11 "../../../os/hal/include/usb.h"
 2058              		.file 12 "../../../os/hal/platforms/STM32/OTGv1/usb_lld.h"
 2059              		.file 13 "../../../os/hal/platforms/STM32/OTGv1/stm32_otg.h"
 2060              		.file 14 "../../../os/kernel/include/chdebug.h"
 2061              		.file 15 "../../../os/ports/common/ARMCMx/CMSIS/include/core_cm4.h"